; Listing generated by Microsoft (R) Optimizing Compiler Version 19.44.35211.0 

include listing.inc

INCLUDELIB OLDNAMES

PUBLIC	??_C@_0BF@KINCDENJ@bad?5array?5new?5length@	; `string'
PUBLIC	??_C@_0BA@JFNIOLAK@string?5too?5long@		; `string'
PUBLIC	??_C@_0BH@DPNNDOEK@invalid?5stoul?5argument@	; `string'
PUBLIC	??_C@_0BM@MOLGGFGJ@stoul?5argument?5out?5of?5range@ ; `string'
PUBLIC	??_C@_0BG@LNNHAOEF@invalid?5stod?5argument@	; `string'
PUBLIC	??_C@_0BL@PPHDABKE@stod?5argument?5out?5of?5range@ ; `string'
PUBLIC	??_C@_07DCLBNMLN@generic@			; `string'
PUBLIC	??_C@_06FHFOAHML@system@			; `string'
PUBLIC	??_C@_04LOAJBDKD@true@				; `string'
PUBLIC	??_C@_0BB@PFCEIHCG@File?5not?5found?3?5@	; `string'
PUBLIC	??_C@_04KAJGAOMC@?4?4?4?5@			; `string'
PUBLIC	??_C@_08HELHLMJO@Testing?5@			; `string'
PUBLIC	??_C@_0M@LPFCHOHD@?5documents?$CJ@		; `string'
PUBLIC	??_C@_08PHMBBBDO@PASSED?5?$CI@			; `string'
PUBLIC	??_C@_0CC@JOIEAPN@FAILED?5?$CIshould?5have?5thrown?5erro@ ; `string'
PUBLIC	??_C@_08MAFNPFKF@FAILED?3?5@			; `string'
PUBLIC	??_C@_0BJ@CMPAICOO@PASSED?5?$CIcorrectly?5threw?$CJ@ ; `string'
PUBLIC	??_C@_06MBANMAIC@PASSED@			; `string'
PUBLIC	??_C@_0BK@LGBBHECN@?$DN?$DN?$DN?5JSON?5Parser?5Tests?5?$DN?$DN?$DN@ ; `string'
PUBLIC	??_C@_0BA@DPKMFFGL@tests?1test?4json@		; `string'
PUBLIC	??_C@_0BL@OLMDAAM@tests?1test_edge_cases?4json@	; `string'
PUBLIC	??_C@_0BI@OIDPJICJ@tests?1test_invalid?4json@	; `string'
PUBLIC	??_C@_0O@LLNAIOEN@simple?5object@		; `string'
PUBLIC	??_C@_0BB@KHKLOMNG@?$HL?$CCkey?$CC?3?5?$CCvalue?$CC?$HN@ ; `string'
PUBLIC	??_C@_0N@PEMCCABF@simple?5array@		; `string'
PUBLIC	??_C@_09MBCGMDGP@?$FL1?0?52?0?53?$FN@		; `string'
PUBLIC	??_C@_0O@HOFEIIEH@simple?5number@		; `string'
PUBLIC	??_C@_02MOKMDPNA@42@				; `string'
PUBLIC	??_C@_07GOBOHMJA@boolean@			; `string'
PUBLIC	??_C@_0L@DGHNIOOK@null?5value@			; `string'
PUBLIC	??_C@_04MLLLIHIP@null@				; `string'
PUBLIC	??_C@_0BE@FOJKOFAH@scientific?5notation@	; `string'
PUBLIC	??_C@_07BFBMOLCB@1?423e10@			; `string'
PUBLIC	??_C@_0N@JFBEBFCN@line?5comment@		; `string'
PUBLIC	??_C@_0BM@MOAPCOHB@?$HL?$CCkey?$CC?3?5?$CCvalue?$CC?$HN?5?1?1?5comment@ ; `string'
PUBLIC	??_C@_0O@BMAILJLI@block?5comment@		; `string'
PUBLIC	??_C@_0CB@DPEKOPIL@?$HL?1?$CK?5comment?5?$CK?1?$CCkey?$CC?5?5?5?3?5?$CCvalue?$CC@ ; `string'
PUBLIC	??_C@_0P@FPDKDABD@trailing?5comma@		; `string'
PUBLIC	??_C@_0O@BMANBFNP@?$FL1?5?0?52?5?5?0?53?0?$FN@	; `string'
PUBLIC	??_C@_0N@MFNDGBHA@unquoted?5key@		; `string'
PUBLIC	??_C@_0BB@JHLOACMA@?$HLkey?5?5?3?5?$CCvalue?$CC?$HN@ ; `string'
PUBLIC	??_C@_0BA@DBAEGCNG@invalid?5boolean@		; `string'
PUBLIC	??_C@_0BA@ILONKDDB@?$HL?$CCkey?$CC?5?5?3?5True?$HN@ ; `string'
PUBLIC	??_C@_0P@DIIHGOMM@Tests?5Complete@		; `string'
PUBLIC	??_C@_0BG@LNPEEPID@JSON?5parsing?5failed?3?5@	; `string'
PUBLIC	??_C@_0BH@HJFABALL@Invalid?5value?5syntax?3?5@	; `string'
PUBLIC	??_C@_0BA@IDEJNKDC@Duplicate?5key?3?5@		; `string'
PUBLIC	??_C@_0P@JPNLNIKK@Endless?5object@		; `string'
PUBLIC	??_C@_0CD@DNDGJFLJ@No?5name?5separator?5after?5object?5@ ; `string'
PUBLIC	??_C@_0CG@LKKKBDCI@No?5value?5separator?5after?5object@ ; `string'
PUBLIC	??_C@_0BI@OEGKDOAJ@Invalid?5object?5syntax?3?5@	; `string'
PUBLIC	??_C@_0O@ELDHGBOG@Endless?5array@		; `string'
PUBLIC	??_C@_0CF@PAAGCNKK@No?5value?5separator?5after?5array?5@ ; `string'
PUBLIC	??_C@_0BG@GELOLNAM@Invalid?5string?5syntax@	; `string'
PUBLIC	??_C@_0BK@GDBLDPAM@Invalid?5bool?5true?5literal@ ; `string'
PUBLIC	??_C@_0BL@MHJMKGJM@Invalid?5bool?5false?5literal@ ; `string'
PUBLIC	??_C@_0BF@GONMNCPG@Invalid?5null?5literal@	; `string'
PUBLIC	??_C@_0BH@NMENEEPL@Invalid?5comment?5syntax@	; `string'
PUBLIC	??_C@_0BG@PEGDFFCL@Endless?5block?5comment@	; `string'
PUBLIC	??_C@_0BN@LPMKJIHG@Unterminated?5escape?5sequence@ ; `string'
PUBLIC	??_C@_0BH@JICOIFBC@Invalid?5unicode?5escape@	; `string'
PUBLIC	??_C@_0BL@KLIDEEPE@Invalid?5escape?5sequence?3?5?2@ ; `string'
PUBLIC	??_C@_0BL@GOIGLPKN@unordered_map?1set?5too?5long@ ; `string'
PUBLIC	??_C@_0BA@FOIKENOD@vector?5too?5long@		; `string'
PUBLIC	??_C@_0BI@CFPLBAOH@invalid?5string?5position@	; `string'
PUBLIC	??_C@_0BK@OGNNAFAB@invalid?5hash?5bucket?5count@ ; `string'
PUBLIC	??_R2Bool@Json@@8				; Json::Bool::`RTTI Base Class Array'
PUBLIC	??_R2Null@Json@@8				; Json::Null::`RTTI Base Class Array'
PUBLIC	??_R2bad_array_new_length@std@@8		; std::bad_array_new_length::`RTTI Base Class Array'
PUBLIC	??_R2system_error@std@@8			; std::system_error::`RTTI Base Class Array'
PUBLIC	??_R1A@?0A@EA@system_error@std@@8		; std::system_error::`RTTI Base Class Descriptor at (0,-1,0,64)'
PUBLIC	??_R0?AVbad_alloc@std@@@8			; std::bad_alloc `RTTI Type Descriptor'
PUBLIC	??_R4Number@Json@@6B@				; Json::Number::`RTTI Complete Object Locator'
PUBLIC	_TI4?AVsystem_error@std@@
PUBLIC	??_R4_System_error_category@std@@6B@		; std::_System_error_category::`RTTI Complete Object Locator'
PUBLIC	??_7Bool@Json@@6B@				; Json::Bool::`vftable'
PUBLIC	??_R4_System_error@std@@6B@			; std::_System_error::`RTTI Complete Object Locator'
PUBLIC	??_R4_Generic_error_category@std@@6B@		; std::_Generic_error_category::`RTTI Complete Object Locator'
PUBLIC	??_R2bad_alloc@std@@8				; std::bad_alloc::`RTTI Base Class Array'
PUBLIC	??_7_Generic_error_category@std@@6B@		; std::_Generic_error_category::`vftable'
PUBLIC	??_R0?AVerror_category@std@@@8			; std::error_category `RTTI Type Descriptor'
PUBLIC	??_R2_System_error@std@@8			; std::_System_error::`RTTI Base Class Array'
PUBLIC	??_7Number@Json@@6B@				; Json::Number::`vftable'
PUBLIC	??_R0?AVsystem_error@std@@@8			; std::system_error `RTTI Type Descriptor'
PUBLIC	??_R0?AV_System_error_category@std@@@8		; std::_System_error_category `RTTI Type Descriptor'
PUBLIC	_CTA3?AVbad_array_new_length@std@@
PUBLIC	??_R3Number@Json@@8				; Json::Number::`RTTI Class Hierarchy Descriptor'
PUBLIC	??_R3Object@Json@@8				; Json::Object::`RTTI Class Hierarchy Descriptor'
PUBLIC	??_7bad_array_new_length@std@@6B@		; std::bad_array_new_length::`vftable'
PUBLIC	??_7Value@Json@@6B@				; Json::Value::`vftable'
PUBLIC	??_R4system_error@std@@6B@			; std::system_error::`RTTI Complete Object Locator'
PUBLIC	?_Static@?1???$_Immortalize_memcpy_image@V_Generic_error_category@std@@@std@@YAAEBV_Generic_error_category@1@XZ@4V21@B ; `std::_Immortalize_memcpy_image<std::_Generic_error_category>'::`2'::_Static
PUBLIC	??_R1A@?0A@EA@_Generic_error_category@std@@8	; std::_Generic_error_category::`RTTI Base Class Descriptor at (0,-1,0,64)'
PUBLIC	??_R1A@?0A@EA@bad_alloc@std@@8			; std::bad_alloc::`RTTI Base Class Descriptor at (0,-1,0,64)'
PUBLIC	??_R2Array@Json@@8				; Json::Array::`RTTI Base Class Array'
PUBLIC	??_R2Value@Json@@8				; Json::Value::`RTTI Base Class Array'
PUBLIC	??_R3_System_error@std@@8			; std::_System_error::`RTTI Class Hierarchy Descriptor'
PUBLIC	??_R0?AV_Generic_error_category@std@@@8		; std::_Generic_error_category `RTTI Type Descriptor'
PUBLIC	??_R4Array@Json@@6B@				; Json::Array::`RTTI Complete Object Locator'
PUBLIC	?numberStartCharacters@Parser@Json@@2V?$array@E$0M@@std@@B ; Json::Parser::numberStartCharacters
PUBLIC	?whitespaceCharacters@Parser@Json@@2V?$array@E$03@std@@B ; Json::Parser::whitespaceCharacters
PUBLIC	?_Unknown_error@?6??message@_System_error_category@std@@UEBA?AV?$basic_string@DU?$char_traits@D@std@@V?$allocator@D@2@@3@H@Z@4QBDB ; `std::_System_error_category::message'::`7'::_Unknown_error
PUBLIC	??_R3Array@Json@@8				; Json::Array::`RTTI Class Hierarchy Descriptor'
PUBLIC	??_R2_System_error_category@std@@8		; std::_System_error_category::`RTTI Base Class Array'
PUBLIC	??_R0?AVNull@Json@@@8				; Json::Null `RTTI Type Descriptor'
PUBLIC	??_7bad_alloc@std@@6B@				; std::bad_alloc::`vftable'
PUBLIC	_CT??_R0?AVsystem_error@std@@@8??0system_error@std@@QEAA@AEBV01@@Z40
PUBLIC	??_R1A@?0A@EA@Bool@Json@@8			; Json::Bool::`RTTI Base Class Descriptor at (0,-1,0,64)'
PUBLIC	??_R4Value@Json@@6B@				; Json::Value::`RTTI Complete Object Locator'
PUBLIC	??_R3_Generic_error_category@std@@8		; std::_Generic_error_category::`RTTI Class Hierarchy Descriptor'
PUBLIC	??_R1A@?0A@EA@Number@Json@@8			; Json::Number::`RTTI Base Class Descriptor at (0,-1,0,64)'
PUBLIC	??_R2String@Json@@8				; Json::String::`RTTI Base Class Array'
PUBLIC	??_R2error_category@std@@8			; std::error_category::`RTTI Base Class Array'
PUBLIC	??_R1A@?0A@EA@Object@Json@@8			; Json::Object::`RTTI Base Class Descriptor at (0,-1,0,64)'
PUBLIC	_CTA4?AVsystem_error@std@@
PUBLIC	??_7Object@Json@@6B@				; Json::Object::`vftable'
PUBLIC	?_Static@?1???$_Immortalize_memcpy_image@V_System_error_category@std@@@std@@YAAEBV_System_error_category@1@XZ@4V21@B ; `std::_Immortalize_memcpy_image<std::_System_error_category>'::`2'::_Static
PUBLIC	??_R4Null@Json@@6B@				; Json::Null::`RTTI Complete Object Locator'
PUBLIC	??_R1A@?0A@EA@Value@Json@@8			; Json::Value::`RTTI Base Class Descriptor at (0,-1,0,64)'
PUBLIC	??_R3Bool@Json@@8				; Json::Bool::`RTTI Class Hierarchy Descriptor'
PUBLIC	_CT??_R0?AVbad_array_new_length@std@@@8??0bad_array_new_length@std@@QEAA@AEBV01@@Z24
PUBLIC	??_7_System_error@std@@6B@			; std::_System_error::`vftable'
PUBLIC	??_R3Null@Json@@8				; Json::Null::`RTTI Class Hierarchy Descriptor'
PUBLIC	??_R4Bool@Json@@6B@				; Json::Bool::`RTTI Complete Object Locator'
PUBLIC	??_R4String@Json@@6B@				; Json::String::`RTTI Complete Object Locator'
PUBLIC	??_R1A@?0A@EA@Array@Json@@8			; Json::Array::`RTTI Base Class Descriptor at (0,-1,0,64)'
PUBLIC	??_7Null@Json@@6B@				; Json::Null::`vftable'
PUBLIC	??_7Array@Json@@6B@				; Json::Array::`vftable'
PUBLIC	?_Min_buckets@?$_Hash@V?$_Umap_traits@V?$basic_string@DU?$char_traits@D@std@@V?$allocator@D@2@@std@@V?$unique_ptr@VValue@Json@@U?$default_delete@VValue@Json@@@std@@@2@V?$_Uhash_compare@V?$basic_string@DU?$char_traits@D@std@@V?$allocator@D@2@@std@@U?$hash@V?$basic_string@DU?$char_traits@D@std@@V?$allocator@D@2@@std@@@2@U?$equal_to@V?$basic_string@DU?$char_traits@D@std@@V?$allocator@D@2@@std@@@2@@2@V?$allocator@U?$pair@$$CBV?$basic_string@DU?$char_traits@D@std@@V?$allocator@D@2@@std@@V?$unique_ptr@VValue@Json@@U?$default_delete@VValue@Json@@@std@@@2@@std@@@2@$0A@@std@@@std@@2_KB ; std::_Hash<std::_Umap_traits<std::basic_string<char,std::char_traits<char>,std::allocator<char> >,std::unique_ptr<Json::Value,std::default_delete<Json::Value> >,std::_Uhash_compare<std::basic_string<char,std::char_traits<char>,std::allocator<char> >,std::hash<std::basic_string<char,std::char_traits<char>,std::allocator<char> > >,std::equal_to<std::basic_string<char,std::char_traits<char>,std::allocator<char> > > >,std::allocator<std::pair<std::basic_string<char,std::char_traits<char>,std::allocator<char> > const ,std::unique_ptr<Json::Value,std::default_delete<Json::Value> > > >,0> >::_Min_buckets
PUBLIC	??_R2_Generic_error_category@std@@8		; std::_Generic_error_category::`RTTI Base Class Array'
PUBLIC	??_R1A@?0A@EA@_System_error@std@@8		; std::_System_error::`RTTI Base Class Descriptor at (0,-1,0,64)'
PUBLIC	??_R3error_category@std@@8			; std::error_category::`RTTI Class Hierarchy Descriptor'
PUBLIC	??_R4bad_alloc@std@@6B@				; std::bad_alloc::`RTTI Complete Object Locator'
PUBLIC	??_R2Number@Json@@8				; Json::Number::`RTTI Base Class Array'
PUBLIC	??_R3_System_error_category@std@@8		; std::_System_error_category::`RTTI Class Hierarchy Descriptor'
PUBLIC	??_R3bad_array_new_length@std@@8		; std::bad_array_new_length::`RTTI Class Hierarchy Descriptor'
PUBLIC	_CT??_R0?AVbad_alloc@std@@@8??0bad_alloc@std@@QEAA@AEBV01@@Z24
PUBLIC	??_R3bad_alloc@std@@8				; std::bad_alloc::`RTTI Class Hierarchy Descriptor'
PUBLIC	??_R1A@?0A@EA@Null@Json@@8			; Json::Null::`RTTI Base Class Descriptor at (0,-1,0,64)'
PUBLIC	_CT??_R0?AV_System_error@std@@@8??0_System_error@std@@QEAA@AEBV01@@Z40
PUBLIC	??_R4bad_array_new_length@std@@6B@		; std::bad_array_new_length::`RTTI Complete Object Locator'
PUBLIC	??_7_System_error_category@std@@6B@		; std::_System_error_category::`vftable'
PUBLIC	??_R0?AV_System_error@std@@@8			; std::_System_error `RTTI Type Descriptor'
PUBLIC	??_R1A@?0A@EA@String@Json@@8			; Json::String::`RTTI Base Class Descriptor at (0,-1,0,64)'
PUBLIC	??_R1A@?0A@EA@bad_array_new_length@std@@8	; std::bad_array_new_length::`RTTI Base Class Descriptor at (0,-1,0,64)'
PUBLIC	??_R3system_error@std@@8			; std::system_error::`RTTI Class Hierarchy Descriptor'
PUBLIC	_TI3?AVbad_array_new_length@std@@
PUBLIC	??_R3Value@Json@@8				; Json::Value::`RTTI Class Hierarchy Descriptor'
PUBLIC	??_R4Object@Json@@6B@				; Json::Object::`RTTI Complete Object Locator'
PUBLIC	??_R1A@?0A@EA@_System_error_category@std@@8	; std::_System_error_category::`RTTI Base Class Descriptor at (0,-1,0,64)'
PUBLIC	??_7system_error@std@@6B@			; std::system_error::`vftable'
PUBLIC	??_7String@Json@@6B@				; Json::String::`vftable'
PUBLIC	??_R0?AVbad_array_new_length@std@@@8		; std::bad_array_new_length `RTTI Type Descriptor'
PUBLIC	??_R2Object@Json@@8				; Json::Object::`RTTI Base Class Array'
PUBLIC	??_R3String@Json@@8				; Json::String::`RTTI Class Hierarchy Descriptor'
PUBLIC	??_R1A@?0A@EA@error_category@std@@8		; std::error_category::`RTTI Base Class Descriptor at (0,-1,0,64)'
EXTRN	__imp_?good@ios_base@std@@QEBA_NXZ:PROC
EXTRN	__imp_?flags@ios_base@std@@QEBAHXZ:PROC
EXTRN	__imp_?width@ios_base@std@@QEBA_JXZ:PROC
EXTRN	__imp_?width@ios_base@std@@QEAA_J_J@Z:PROC
EXTRN	__imp_??6?$basic_ostream@DU?$char_traits@D@std@@@std@@QEAAAEAV01@_K@Z:PROC
EXTRN	__imp_??6?$basic_ostream@DU?$char_traits@D@std@@@std@@QEAAAEAV01@P6AAEAV01@AEAV01@@Z@Z:PROC
EXTRN	__imp_?flush@?$basic_ostream@DU?$char_traits@D@std@@@std@@QEAAAEAV12@XZ:PROC
EXTRN	__imp_?put@?$basic_ostream@DU?$char_traits@D@std@@@std@@QEAAAEAV12@D@Z:PROC
EXTRN	__imp_?sputn@?$basic_streambuf@DU?$char_traits@D@std@@@std@@QEAA_JPEBD_J@Z:PROC
EXTRN	__imp_?sputc@?$basic_streambuf@DU?$char_traits@D@std@@@std@@QEAAHD@Z:PROC
EXTRN	__imp_?widen@?$basic_ios@DU?$char_traits@D@std@@@std@@QEBADD@Z:PROC
EXTRN	__imp_?fill@?$basic_ios@DU?$char_traits@D@std@@@std@@QEBADXZ:PROC
EXTRN	__imp_?rdbuf@?$basic_ios@DU?$char_traits@D@std@@@std@@QEBAPEAV?$basic_streambuf@DU?$char_traits@D@std@@@2@XZ:PROC
EXTRN	__imp_?setstate@?$basic_ios@DU?$char_traits@D@std@@@std@@QEAAXH_N@Z:PROC
EXTRN	__imp_?_Osfx@?$basic_ostream@DU?$char_traits@D@std@@@std@@QEAAXXZ:PROC
EXTRN	__imp_?tie@?$basic_ios@DU?$char_traits@D@std@@@std@@QEBAPEAV?$basic_ostream@DU?$char_traits@D@std@@@2@XZ:PROC
EXTRN	__imp_MapViewOfFile:PROC
EXTRN	__imp_CreateFileMappingA:PROC
EXTRN	__imp_CloseHandle:PROC
EXTRN	__imp__errno:PROC
EXTRN	__std_system_error_allocate_message:PROC
EXTRN	__imp_CreateFileA:PROC
EXTRN	_Init_thread_header:PROC
EXTRN	__imp_GetLastError:PROC
EXTRN	__imp__purecall:PROC
EXTRN	??3@YAXPEAX@Z:PROC				; operator delete
EXTRN	atexit:PROC
EXTRN	__imp_UnmapViewOfFile:PROC
EXTRN	__imp_strtoul:PROC
EXTRN	_Init_thread_footer:PROC
EXTRN	__imp_?_Syserror_map@std@@YAPEBDH@Z:PROC
EXTRN	__imp_?_Xlength_error@std@@YAXPEBD@Z:PROC
EXTRN	__imp_?_Winerror_map@std@@YAHH@Z:PROC
EXTRN	__imp_?_Xout_of_range@std@@YAXPEBD@Z:PROC
EXTRN	__imp_?_Xinvalid_argument@std@@YAXPEBD@Z:PROC
EXTRN	__imp_?cout@std@@3V?$basic_ostream@DU?$char_traits@D@std@@@1@A:BYTE
EXTRN	__imp_?uncaught_exceptions@std@@YAHXZ:PROC
EXTRN	??2@YAPEAX_K@Z:PROC				; operator new
EXTRN	__imp_strtod:PROC
EXTRN	__imp__invoke_watson:PROC
EXTRN	_Init_thread_epoch:DWORD
EXTRN	__std_system_error_deallocate_message:PROC
EXTRN	__imp_GetFileSizeEx:PROC
EXTRN	_purecall:PROC
;	COMDAT ??_R1A@?0A@EA@error_category@std@@8
rdata$r	SEGMENT
??_R1A@?0A@EA@error_category@std@@8 DD imagerel ??_R0?AVerror_category@std@@@8 ; std::error_category::`RTTI Base Class Descriptor at (0,-1,0,64)'
	DD	00H
	DD	00H
	DD	0ffffffffH
	DD	00H
	DD	040H
	DD	imagerel ??_R3error_category@std@@8
rdata$r	ENDS
;	COMDAT ??_R3String@Json@@8
rdata$r	SEGMENT
??_R3String@Json@@8 DD 00H				; Json::String::`RTTI Class Hierarchy Descriptor'
	DD	00H
	DD	02H
	DD	imagerel ??_R2String@Json@@8
rdata$r	ENDS
;	COMDAT ??_R2Object@Json@@8
rdata$r	SEGMENT
??_R2Object@Json@@8 DD imagerel ??_R1A@?0A@EA@Object@Json@@8 ; Json::Object::`RTTI Base Class Array'
	DD	imagerel ??_R1A@?0A@EA@Value@Json@@8
	ORG $+3
rdata$r	ENDS
;	COMDAT ??_R0?AVbad_array_new_length@std@@@8
data$r	SEGMENT
??_R0?AVbad_array_new_length@std@@@8 DQ FLAT:??_7type_info@@6B@ ; std::bad_array_new_length `RTTI Type Descriptor'
	DQ	0000000000000000H
	DB	'.?AVbad_array_new_length@std@@', 00H
data$r	ENDS
;	COMDAT ??_7String@Json@@6B@
CONST	SEGMENT
??_7String@Json@@6B@ DQ FLAT:??_R4String@Json@@6B@	; Json::String::`vftable'
	DQ	FLAT:??_EString@Json@@UEAAPEAXI@Z
	DQ	FLAT:?isArray@String@Json@@UEBA_NXZ
	DQ	FLAT:?isBool@String@Json@@UEBA_NXZ
	DQ	FLAT:?isNumber@String@Json@@UEBA_NXZ
	DQ	FLAT:?isObject@String@Json@@UEBA_NXZ
	DQ	FLAT:?isString@String@Json@@UEBA_NXZ
	DQ	FLAT:?isNull@String@Json@@UEBA_NXZ
CONST	ENDS
;	COMDAT ??_7system_error@std@@6B@
CONST	SEGMENT
??_7system_error@std@@6B@ DQ FLAT:??_R4system_error@std@@6B@ ; std::system_error::`vftable'
	DQ	FLAT:??_Esystem_error@std@@UEAAPEAXI@Z
	DQ	FLAT:?what@exception@std@@UEBAPEBDXZ
CONST	ENDS
;	COMDAT ??_R1A@?0A@EA@_System_error_category@std@@8
rdata$r	SEGMENT
??_R1A@?0A@EA@_System_error_category@std@@8 DD imagerel ??_R0?AV_System_error_category@std@@@8 ; std::_System_error_category::`RTTI Base Class Descriptor at (0,-1,0,64)'
	DD	01H
	DD	00H
	DD	0ffffffffH
	DD	00H
	DD	040H
	DD	imagerel ??_R3_System_error_category@std@@8
rdata$r	ENDS
;	COMDAT ??_R4Object@Json@@6B@
rdata$r	SEGMENT
??_R4Object@Json@@6B@ DD 01H				; Json::Object::`RTTI Complete Object Locator'
	DD	00H
	DD	00H
	DD	imagerel ??_R0?AVObject@Json@@@8
	DD	imagerel ??_R3Object@Json@@8
	DD	imagerel ??_R4Object@Json@@6B@
rdata$r	ENDS
;	COMDAT ??_R3Value@Json@@8
rdata$r	SEGMENT
??_R3Value@Json@@8 DD 00H				; Json::Value::`RTTI Class Hierarchy Descriptor'
	DD	00H
	DD	01H
	DD	imagerel ??_R2Value@Json@@8
rdata$r	ENDS
;	COMDAT _TI3?AVbad_array_new_length@std@@
xdata$x	SEGMENT
_TI3?AVbad_array_new_length@std@@ DD 00H
	DD	imagerel ??1bad_array_new_length@std@@UEAA@XZ
	DD	00H
	DD	imagerel _CTA3?AVbad_array_new_length@std@@
xdata$x	ENDS
;	COMDAT ??_R3system_error@std@@8
rdata$r	SEGMENT
??_R3system_error@std@@8 DD 00H				; std::system_error::`RTTI Class Hierarchy Descriptor'
	DD	00H
	DD	04H
	DD	imagerel ??_R2system_error@std@@8
rdata$r	ENDS
;	COMDAT ??_R1A@?0A@EA@bad_array_new_length@std@@8
rdata$r	SEGMENT
??_R1A@?0A@EA@bad_array_new_length@std@@8 DD imagerel ??_R0?AVbad_array_new_length@std@@@8 ; std::bad_array_new_length::`RTTI Base Class Descriptor at (0,-1,0,64)'
	DD	02H
	DD	00H
	DD	0ffffffffH
	DD	00H
	DD	040H
	DD	imagerel ??_R3bad_array_new_length@std@@8
rdata$r	ENDS
;	COMDAT ??_R1A@?0A@EA@String@Json@@8
rdata$r	SEGMENT
??_R1A@?0A@EA@String@Json@@8 DD imagerel ??_R0?AVString@Json@@@8 ; Json::String::`RTTI Base Class Descriptor at (0,-1,0,64)'
	DD	01H
	DD	00H
	DD	0ffffffffH
	DD	00H
	DD	040H
	DD	imagerel ??_R3String@Json@@8
rdata$r	ENDS
;	COMDAT ??_R0?AV_System_error@std@@@8
data$r	SEGMENT
??_R0?AV_System_error@std@@@8 DQ FLAT:??_7type_info@@6B@ ; std::_System_error `RTTI Type Descriptor'
	DQ	0000000000000000H
	DB	'.?AV_System_error@std@@', 00H
data$r	ENDS
;	COMDAT ??_7_System_error_category@std@@6B@
CONST	SEGMENT
??_7_System_error_category@std@@6B@ DQ FLAT:??_R4_System_error_category@std@@6B@ ; std::_System_error_category::`vftable'
	DQ	FLAT:??_E_System_error_category@std@@UEAAPEAXI@Z
	DQ	FLAT:?name@_System_error_category@std@@UEBAPEBDXZ
	DQ	FLAT:?message@_System_error_category@std@@UEBA?AV?$basic_string@DU?$char_traits@D@std@@V?$allocator@D@2@@2@H@Z
	DQ	FLAT:?default_error_condition@_System_error_category@std@@UEBA?AVerror_condition@2@H@Z
	DQ	FLAT:?equivalent@error_category@std@@UEBA_NAEBVerror_code@2@H@Z
	DQ	FLAT:?equivalent@error_category@std@@UEBA_NHAEBVerror_condition@2@@Z
CONST	ENDS
;	COMDAT ??_R4bad_array_new_length@std@@6B@
rdata$r	SEGMENT
??_R4bad_array_new_length@std@@6B@ DD 01H		; std::bad_array_new_length::`RTTI Complete Object Locator'
	DD	00H
	DD	00H
	DD	imagerel ??_R0?AVbad_array_new_length@std@@@8
	DD	imagerel ??_R3bad_array_new_length@std@@8
	DD	imagerel ??_R4bad_array_new_length@std@@6B@
rdata$r	ENDS
;	COMDAT _CT??_R0?AV_System_error@std@@@8??0_System_error@std@@QEAA@AEBV01@@Z40
xdata$x	SEGMENT
_CT??_R0?AV_System_error@std@@@8??0_System_error@std@@QEAA@AEBV01@@Z40 DD 00H
	DD	imagerel ??_R0?AV_System_error@std@@@8
	DD	00H
	DD	0ffffffffH
	ORG $+4
	DD	028H
	DD	imagerel ??0_System_error@std@@QEAA@AEBV01@@Z
xdata$x	ENDS
;	COMDAT ??_R1A@?0A@EA@Null@Json@@8
rdata$r	SEGMENT
??_R1A@?0A@EA@Null@Json@@8 DD imagerel ??_R0?AVNull@Json@@@8 ; Json::Null::`RTTI Base Class Descriptor at (0,-1,0,64)'
	DD	01H
	DD	00H
	DD	0ffffffffH
	DD	00H
	DD	040H
	DD	imagerel ??_R3Null@Json@@8
rdata$r	ENDS
;	COMDAT ??_R3bad_alloc@std@@8
rdata$r	SEGMENT
??_R3bad_alloc@std@@8 DD 00H				; std::bad_alloc::`RTTI Class Hierarchy Descriptor'
	DD	00H
	DD	02H
	DD	imagerel ??_R2bad_alloc@std@@8
rdata$r	ENDS
;	COMDAT _CT??_R0?AVbad_alloc@std@@@8??0bad_alloc@std@@QEAA@AEBV01@@Z24
xdata$x	SEGMENT
_CT??_R0?AVbad_alloc@std@@@8??0bad_alloc@std@@QEAA@AEBV01@@Z24 DD 010H
	DD	imagerel ??_R0?AVbad_alloc@std@@@8
	DD	00H
	DD	0ffffffffH
	ORG $+4
	DD	018H
	DD	imagerel ??0bad_alloc@std@@QEAA@AEBV01@@Z
xdata$x	ENDS
;	COMDAT ??_R3bad_array_new_length@std@@8
rdata$r	SEGMENT
??_R3bad_array_new_length@std@@8 DD 00H			; std::bad_array_new_length::`RTTI Class Hierarchy Descriptor'
	DD	00H
	DD	03H
	DD	imagerel ??_R2bad_array_new_length@std@@8
rdata$r	ENDS
;	COMDAT ??_R3_System_error_category@std@@8
rdata$r	SEGMENT
??_R3_System_error_category@std@@8 DD 00H		; std::_System_error_category::`RTTI Class Hierarchy Descriptor'
	DD	00H
	DD	02H
	DD	imagerel ??_R2_System_error_category@std@@8
rdata$r	ENDS
;	COMDAT ??_R2Number@Json@@8
rdata$r	SEGMENT
??_R2Number@Json@@8 DD imagerel ??_R1A@?0A@EA@Number@Json@@8 ; Json::Number::`RTTI Base Class Array'
	DD	imagerel ??_R1A@?0A@EA@Value@Json@@8
	ORG $+3
rdata$r	ENDS
;	COMDAT ??_R4bad_alloc@std@@6B@
rdata$r	SEGMENT
??_R4bad_alloc@std@@6B@ DD 01H				; std::bad_alloc::`RTTI Complete Object Locator'
	DD	00H
	DD	00H
	DD	imagerel ??_R0?AVbad_alloc@std@@@8
	DD	imagerel ??_R3bad_alloc@std@@8
	DD	imagerel ??_R4bad_alloc@std@@6B@
rdata$r	ENDS
;	COMDAT ??_R3error_category@std@@8
rdata$r	SEGMENT
??_R3error_category@std@@8 DD 00H			; std::error_category::`RTTI Class Hierarchy Descriptor'
	DD	00H
	DD	01H
	DD	imagerel ??_R2error_category@std@@8
rdata$r	ENDS
;	COMDAT ??_R1A@?0A@EA@_System_error@std@@8
rdata$r	SEGMENT
??_R1A@?0A@EA@_System_error@std@@8 DD imagerel ??_R0?AV_System_error@std@@@8 ; std::_System_error::`RTTI Base Class Descriptor at (0,-1,0,64)'
	DD	02H
	DD	00H
	DD	0ffffffffH
	DD	00H
	DD	040H
	DD	imagerel ??_R3_System_error@std@@8
rdata$r	ENDS
;	COMDAT ??_R2_Generic_error_category@std@@8
rdata$r	SEGMENT
??_R2_Generic_error_category@std@@8 DD imagerel ??_R1A@?0A@EA@_Generic_error_category@std@@8 ; std::_Generic_error_category::`RTTI Base Class Array'
	DD	imagerel ??_R1A@?0A@EA@error_category@std@@8
	ORG $+3
rdata$r	ENDS
;	COMDAT ?_Min_buckets@?$_Hash@V?$_Umap_traits@V?$basic_string@DU?$char_traits@D@std@@V?$allocator@D@2@@std@@V?$unique_ptr@VValue@Json@@U?$default_delete@VValue@Json@@@std@@@2@V?$_Uhash_compare@V?$basic_string@DU?$char_traits@D@std@@V?$allocator@D@2@@std@@U?$hash@V?$basic_string@DU?$char_traits@D@std@@V?$allocator@D@2@@std@@@2@U?$equal_to@V?$basic_string@DU?$char_traits@D@std@@V?$allocator@D@2@@std@@@2@@2@V?$allocator@U?$pair@$$CBV?$basic_string@DU?$char_traits@D@std@@V?$allocator@D@2@@std@@V?$unique_ptr@VValue@Json@@U?$default_delete@VValue@Json@@@std@@@2@@std@@@2@$0A@@std@@@std@@2_KB
CONST	SEGMENT
?_Min_buckets@?$_Hash@V?$_Umap_traits@V?$basic_string@DU?$char_traits@D@std@@V?$allocator@D@2@@std@@V?$unique_ptr@VValue@Json@@U?$default_delete@VValue@Json@@@std@@@2@V?$_Uhash_compare@V?$basic_string@DU?$char_traits@D@std@@V?$allocator@D@2@@std@@U?$hash@V?$basic_string@DU?$char_traits@D@std@@V?$allocator@D@2@@std@@@2@U?$equal_to@V?$basic_string@DU?$char_traits@D@std@@V?$allocator@D@2@@std@@@2@@2@V?$allocator@U?$pair@$$CBV?$basic_string@DU?$char_traits@D@std@@V?$allocator@D@2@@std@@V?$unique_ptr@VValue@Json@@U?$default_delete@VValue@Json@@@std@@@2@@std@@@2@$0A@@std@@@std@@2_KB DQ 0000000000000008H ; std::_Hash<std::_Umap_traits<std::basic_string<char,std::char_traits<char>,std::allocator<char> >,std::unique_ptr<Json::Value,std::default_delete<Json::Value> >,std::_Uhash_compare<std::basic_string<char,std::char_traits<char>,std::allocator<char> >,std::hash<std::basic_string<char,std::char_traits<char>,std::allocator<char> > >,std::equal_to<std::basic_string<char,std::char_traits<char>,std::allocator<char> > > >,std::allocator<std::pair<std::basic_string<char,std::char_traits<char>,std::allocator<char> > const ,std::unique_ptr<Json::Value,std::default_delete<Json::Value> > > >,0> >::_Min_buckets
CONST	ENDS
;	COMDAT ??_7Array@Json@@6B@
CONST	SEGMENT
??_7Array@Json@@6B@ DQ FLAT:??_R4Array@Json@@6B@	; Json::Array::`vftable'
	DQ	FLAT:??_EArray@Json@@UEAAPEAXI@Z
	DQ	FLAT:?isArray@Array@Json@@UEBA_NXZ
	DQ	FLAT:?isBool@Array@Json@@UEBA_NXZ
	DQ	FLAT:?isNumber@Array@Json@@UEBA_NXZ
	DQ	FLAT:?isObject@Array@Json@@UEBA_NXZ
	DQ	FLAT:?isString@Array@Json@@UEBA_NXZ
	DQ	FLAT:?isNull@Array@Json@@UEBA_NXZ
CONST	ENDS
;	COMDAT ??_7Null@Json@@6B@
CONST	SEGMENT
??_7Null@Json@@6B@ DQ FLAT:??_R4Null@Json@@6B@		; Json::Null::`vftable'
	DQ	FLAT:??_ENull@Json@@UEAAPEAXI@Z
	DQ	FLAT:?isArray@Null@Json@@UEBA_NXZ
	DQ	FLAT:?isBool@Null@Json@@UEBA_NXZ
	DQ	FLAT:?isNumber@Null@Json@@UEBA_NXZ
	DQ	FLAT:?isObject@Null@Json@@UEBA_NXZ
	DQ	FLAT:?isString@Null@Json@@UEBA_NXZ
	DQ	FLAT:?isNull@Null@Json@@UEBA_NXZ
CONST	ENDS
;	COMDAT ??_R1A@?0A@EA@Array@Json@@8
rdata$r	SEGMENT
??_R1A@?0A@EA@Array@Json@@8 DD imagerel ??_R0?AVArray@Json@@@8 ; Json::Array::`RTTI Base Class Descriptor at (0,-1,0,64)'
	DD	01H
	DD	00H
	DD	0ffffffffH
	DD	00H
	DD	040H
	DD	imagerel ??_R3Array@Json@@8
rdata$r	ENDS
;	COMDAT ??_R4String@Json@@6B@
rdata$r	SEGMENT
??_R4String@Json@@6B@ DD 01H				; Json::String::`RTTI Complete Object Locator'
	DD	00H
	DD	00H
	DD	imagerel ??_R0?AVString@Json@@@8
	DD	imagerel ??_R3String@Json@@8
	DD	imagerel ??_R4String@Json@@6B@
rdata$r	ENDS
;	COMDAT ??_R4Bool@Json@@6B@
rdata$r	SEGMENT
??_R4Bool@Json@@6B@ DD 01H				; Json::Bool::`RTTI Complete Object Locator'
	DD	00H
	DD	00H
	DD	imagerel ??_R0?AVBool@Json@@@8
	DD	imagerel ??_R3Bool@Json@@8
	DD	imagerel ??_R4Bool@Json@@6B@
rdata$r	ENDS
;	COMDAT ??_R3Null@Json@@8
rdata$r	SEGMENT
??_R3Null@Json@@8 DD 00H				; Json::Null::`RTTI Class Hierarchy Descriptor'
	DD	00H
	DD	02H
	DD	imagerel ??_R2Null@Json@@8
rdata$r	ENDS
;	COMDAT ??_7_System_error@std@@6B@
CONST	SEGMENT
??_7_System_error@std@@6B@ DQ FLAT:??_R4_System_error@std@@6B@ ; std::_System_error::`vftable'
	DQ	FLAT:??_E_System_error@std@@UEAAPEAXI@Z
	DQ	FLAT:?what@exception@std@@UEBAPEBDXZ
CONST	ENDS
;	COMDAT _CT??_R0?AVbad_array_new_length@std@@@8??0bad_array_new_length@std@@QEAA@AEBV01@@Z24
xdata$x	SEGMENT
_CT??_R0?AVbad_array_new_length@std@@@8??0bad_array_new_length@std@@QEAA@AEBV01@@Z24 DD 00H
	DD	imagerel ??_R0?AVbad_array_new_length@std@@@8
	DD	00H
	DD	0ffffffffH
	ORG $+4
	DD	018H
	DD	imagerel ??0bad_array_new_length@std@@QEAA@AEBV01@@Z
xdata$x	ENDS
;	COMDAT ??_R3Bool@Json@@8
rdata$r	SEGMENT
??_R3Bool@Json@@8 DD 00H				; Json::Bool::`RTTI Class Hierarchy Descriptor'
	DD	00H
	DD	02H
	DD	imagerel ??_R2Bool@Json@@8
rdata$r	ENDS
;	COMDAT ??_R1A@?0A@EA@Value@Json@@8
rdata$r	SEGMENT
??_R1A@?0A@EA@Value@Json@@8 DD imagerel ??_R0?AVValue@Json@@@8 ; Json::Value::`RTTI Base Class Descriptor at (0,-1,0,64)'
	DD	00H
	DD	00H
	DD	0ffffffffH
	DD	00H
	DD	040H
	DD	imagerel ??_R3Value@Json@@8
rdata$r	ENDS
;	COMDAT ??_R4Null@Json@@6B@
rdata$r	SEGMENT
??_R4Null@Json@@6B@ DD 01H				; Json::Null::`RTTI Complete Object Locator'
	DD	00H
	DD	00H
	DD	imagerel ??_R0?AVNull@Json@@@8
	DD	imagerel ??_R3Null@Json@@8
	DD	imagerel ??_R4Null@Json@@6B@
rdata$r	ENDS
;	COMDAT ?_Static@?1???$_Immortalize_memcpy_image@V_System_error_category@std@@@std@@YAAEBV_System_error_category@1@XZ@4V21@B
_DATA	SEGMENT
?_Static@?1???$_Immortalize_memcpy_image@V_System_error_category@std@@@std@@YAAEBV_System_error_category@1@XZ@4V21@B DQ FLAT:??_7_System_error_category@std@@6B@ ; `std::_Immortalize_memcpy_image<std::_System_error_category>'::`2'::_Static
	DQ	0000000000000007H
_DATA	ENDS
;	COMDAT ??_7Object@Json@@6B@
CONST	SEGMENT
??_7Object@Json@@6B@ DQ FLAT:??_R4Object@Json@@6B@	; Json::Object::`vftable'
	DQ	FLAT:??_EObject@Json@@UEAAPEAXI@Z
	DQ	FLAT:?isArray@Object@Json@@UEBA_NXZ
	DQ	FLAT:?isBool@Object@Json@@UEBA_NXZ
	DQ	FLAT:?isNumber@Object@Json@@UEBA_NXZ
	DQ	FLAT:?isObject@Object@Json@@UEBA_NXZ
	DQ	FLAT:?isString@Object@Json@@UEBA_NXZ
	DQ	FLAT:?isNull@Object@Json@@UEBA_NXZ
CONST	ENDS
;	COMDAT _CTA4?AVsystem_error@std@@
xdata$x	SEGMENT
_CTA4?AVsystem_error@std@@ DD 04H
	DD	imagerel _CT??_R0?AVsystem_error@std@@@8??0system_error@std@@QEAA@AEBV01@@Z40
	DD	imagerel _CT??_R0?AV_System_error@std@@@8??0_System_error@std@@QEAA@AEBV01@@Z40
	DD	imagerel _CT??_R0?AVruntime_error@std@@@8??0runtime_error@std@@QEAA@AEBV01@@Z24
	DD	imagerel _CT??_R0?AVexception@std@@@8??0exception@std@@QEAA@AEBV01@@Z24
xdata$x	ENDS
;	COMDAT ??_R1A@?0A@EA@Object@Json@@8
rdata$r	SEGMENT
??_R1A@?0A@EA@Object@Json@@8 DD imagerel ??_R0?AVObject@Json@@@8 ; Json::Object::`RTTI Base Class Descriptor at (0,-1,0,64)'
	DD	01H
	DD	00H
	DD	0ffffffffH
	DD	00H
	DD	040H
	DD	imagerel ??_R3Object@Json@@8
rdata$r	ENDS
;	COMDAT ??_R2error_category@std@@8
rdata$r	SEGMENT
??_R2error_category@std@@8 DD imagerel ??_R1A@?0A@EA@error_category@std@@8 ; std::error_category::`RTTI Base Class Array'
	ORG $+3
rdata$r	ENDS
;	COMDAT ??_R2String@Json@@8
rdata$r	SEGMENT
??_R2String@Json@@8 DD imagerel ??_R1A@?0A@EA@String@Json@@8 ; Json::String::`RTTI Base Class Array'
	DD	imagerel ??_R1A@?0A@EA@Value@Json@@8
	ORG $+3
rdata$r	ENDS
;	COMDAT ??_R1A@?0A@EA@Number@Json@@8
rdata$r	SEGMENT
??_R1A@?0A@EA@Number@Json@@8 DD imagerel ??_R0?AVNumber@Json@@@8 ; Json::Number::`RTTI Base Class Descriptor at (0,-1,0,64)'
	DD	01H
	DD	00H
	DD	0ffffffffH
	DD	00H
	DD	040H
	DD	imagerel ??_R3Number@Json@@8
rdata$r	ENDS
;	COMDAT ??_R3_Generic_error_category@std@@8
rdata$r	SEGMENT
??_R3_Generic_error_category@std@@8 DD 00H		; std::_Generic_error_category::`RTTI Class Hierarchy Descriptor'
	DD	00H
	DD	02H
	DD	imagerel ??_R2_Generic_error_category@std@@8
rdata$r	ENDS
;	COMDAT ??_R4Value@Json@@6B@
rdata$r	SEGMENT
??_R4Value@Json@@6B@ DD 01H				; Json::Value::`RTTI Complete Object Locator'
	DD	00H
	DD	00H
	DD	imagerel ??_R0?AVValue@Json@@@8
	DD	imagerel ??_R3Value@Json@@8
	DD	imagerel ??_R4Value@Json@@6B@
rdata$r	ENDS
;	COMDAT ??_R1A@?0A@EA@Bool@Json@@8
rdata$r	SEGMENT
??_R1A@?0A@EA@Bool@Json@@8 DD imagerel ??_R0?AVBool@Json@@@8 ; Json::Bool::`RTTI Base Class Descriptor at (0,-1,0,64)'
	DD	01H
	DD	00H
	DD	0ffffffffH
	DD	00H
	DD	040H
	DD	imagerel ??_R3Bool@Json@@8
rdata$r	ENDS
;	COMDAT _CT??_R0?AVsystem_error@std@@@8??0system_error@std@@QEAA@AEBV01@@Z40
xdata$x	SEGMENT
_CT??_R0?AVsystem_error@std@@@8??0system_error@std@@QEAA@AEBV01@@Z40 DD 00H
	DD	imagerel ??_R0?AVsystem_error@std@@@8
	DD	00H
	DD	0ffffffffH
	ORG $+4
	DD	028H
	DD	imagerel ??0system_error@std@@QEAA@AEBV01@@Z
xdata$x	ENDS
;	COMDAT ??_7bad_alloc@std@@6B@
CONST	SEGMENT
??_7bad_alloc@std@@6B@ DQ FLAT:??_R4bad_alloc@std@@6B@	; std::bad_alloc::`vftable'
	DQ	FLAT:??_Ebad_alloc@std@@UEAAPEAXI@Z
	DQ	FLAT:?what@exception@std@@UEBAPEBDXZ
CONST	ENDS
;	COMDAT ??_R0?AVNull@Json@@@8
data$rs	SEGMENT
??_R0?AVNull@Json@@@8 DQ FLAT:??_7type_info@@6B@	; Json::Null `RTTI Type Descriptor'
	DQ	0000000000000000H
	DB	'.?AVNull@Json@@', 00H
data$rs	ENDS
;	COMDAT ??_R2_System_error_category@std@@8
rdata$r	SEGMENT
??_R2_System_error_category@std@@8 DD imagerel ??_R1A@?0A@EA@_System_error_category@std@@8 ; std::_System_error_category::`RTTI Base Class Array'
	DD	imagerel ??_R1A@?0A@EA@error_category@std@@8
	ORG $+3
rdata$r	ENDS
;	COMDAT ??_R3Array@Json@@8
rdata$r	SEGMENT
??_R3Array@Json@@8 DD 00H				; Json::Array::`RTTI Class Hierarchy Descriptor'
	DD	00H
	DD	02H
	DD	imagerel ??_R2Array@Json@@8
rdata$r	ENDS
;	COMDAT ?_Unknown_error@?6??message@_System_error_category@std@@UEBA?AV?$basic_string@DU?$char_traits@D@std@@V?$allocator@D@2@@3@H@Z@4QBDB
CONST	SEGMENT
?_Unknown_error@?6??message@_System_error_category@std@@UEBA?AV?$basic_string@DU?$char_traits@D@std@@V?$allocator@D@2@@3@H@Z@4QBDB DB 075H ; `std::_System_error_category::message'::`7'::_Unknown_error
	DB	06eH
	DB	06bH
	DB	06eH
	DB	06fH
	DB	077H
	DB	06eH
	DB	020H
	DB	065H
	DB	072H
	DB	072H
	DB	06fH
	DB	072H
	DB	00H
CONST	ENDS
;	COMDAT ?whitespaceCharacters@Parser@Json@@2V?$array@E$03@std@@B
CONST	SEGMENT
?whitespaceCharacters@Parser@Json@@2V?$array@E$03@std@@B DB 020H ; Json::Parser::whitespaceCharacters
	DB	09H
	DB	0dH
	DB	0aH
CONST	ENDS
;	COMDAT ?numberStartCharacters@Parser@Json@@2V?$array@E$0M@@std@@B
CONST	SEGMENT
?numberStartCharacters@Parser@Json@@2V?$array@E$0M@@std@@B DB 030H ; Json::Parser::numberStartCharacters
	DB	031H
	DB	032H
	DB	033H
	DB	034H
	DB	035H
	DB	036H
	DB	037H
	DB	038H
	DB	039H
	DB	02bH
	DB	02dH
CONST	ENDS
;	COMDAT ??_R4Array@Json@@6B@
rdata$r	SEGMENT
??_R4Array@Json@@6B@ DD 01H				; Json::Array::`RTTI Complete Object Locator'
	DD	00H
	DD	00H
	DD	imagerel ??_R0?AVArray@Json@@@8
	DD	imagerel ??_R3Array@Json@@8
	DD	imagerel ??_R4Array@Json@@6B@
rdata$r	ENDS
;	COMDAT ??_R0?AV_Generic_error_category@std@@@8
data$rs	SEGMENT
??_R0?AV_Generic_error_category@std@@@8 DQ FLAT:??_7type_info@@6B@ ; std::_Generic_error_category `RTTI Type Descriptor'
	DQ	0000000000000000H
	DB	'.?AV_Generic_error_category@std@@', 00H
data$rs	ENDS
;	COMDAT ??_R3_System_error@std@@8
rdata$r	SEGMENT
??_R3_System_error@std@@8 DD 00H			; std::_System_error::`RTTI Class Hierarchy Descriptor'
	DD	00H
	DD	03H
	DD	imagerel ??_R2_System_error@std@@8
rdata$r	ENDS
;	COMDAT ??_R2Value@Json@@8
rdata$r	SEGMENT
??_R2Value@Json@@8 DD imagerel ??_R1A@?0A@EA@Value@Json@@8 ; Json::Value::`RTTI Base Class Array'
	ORG $+3
rdata$r	ENDS
;	COMDAT ??_R2Array@Json@@8
rdata$r	SEGMENT
??_R2Array@Json@@8 DD imagerel ??_R1A@?0A@EA@Array@Json@@8 ; Json::Array::`RTTI Base Class Array'
	DD	imagerel ??_R1A@?0A@EA@Value@Json@@8
	ORG $+3
rdata$r	ENDS
;	COMDAT ??_R1A@?0A@EA@bad_alloc@std@@8
rdata$r	SEGMENT
??_R1A@?0A@EA@bad_alloc@std@@8 DD imagerel ??_R0?AVbad_alloc@std@@@8 ; std::bad_alloc::`RTTI Base Class Descriptor at (0,-1,0,64)'
	DD	01H
	DD	00H
	DD	0ffffffffH
	DD	00H
	DD	040H
	DD	imagerel ??_R3bad_alloc@std@@8
rdata$r	ENDS
;	COMDAT ??_R1A@?0A@EA@_Generic_error_category@std@@8
rdata$r	SEGMENT
??_R1A@?0A@EA@_Generic_error_category@std@@8 DD imagerel ??_R0?AV_Generic_error_category@std@@@8 ; std::_Generic_error_category::`RTTI Base Class Descriptor at (0,-1,0,64)'
	DD	01H
	DD	00H
	DD	0ffffffffH
	DD	00H
	DD	040H
	DD	imagerel ??_R3_Generic_error_category@std@@8
rdata$r	ENDS
;	COMDAT ?_Static@?1???$_Immortalize_memcpy_image@V_Generic_error_category@std@@@std@@YAAEBV_Generic_error_category@1@XZ@4V21@B
_DATA	SEGMENT
?_Static@?1???$_Immortalize_memcpy_image@V_Generic_error_category@std@@@std@@YAAEBV_Generic_error_category@1@XZ@4V21@B DQ FLAT:??_7_Generic_error_category@std@@6B@ ; `std::_Immortalize_memcpy_image<std::_Generic_error_category>'::`2'::_Static
	DQ	0000000000000003H
_DATA	ENDS
;	COMDAT ??_R4system_error@std@@6B@
rdata$r	SEGMENT
??_R4system_error@std@@6B@ DD 01H			; std::system_error::`RTTI Complete Object Locator'
	DD	00H
	DD	00H
	DD	imagerel ??_R0?AVsystem_error@std@@@8
	DD	imagerel ??_R3system_error@std@@8
	DD	imagerel ??_R4system_error@std@@6B@
rdata$r	ENDS
;	COMDAT ??_7Value@Json@@6B@
CONST	SEGMENT
??_7Value@Json@@6B@ DQ FLAT:??_R4Value@Json@@6B@	; Json::Value::`vftable'
	DQ	FLAT:??_EValue@Json@@UEAAPEAXI@Z
	DQ	FLAT:_purecall
	DQ	FLAT:_purecall
	DQ	FLAT:_purecall
	DQ	FLAT:_purecall
	DQ	FLAT:_purecall
	DQ	FLAT:_purecall
CONST	ENDS
;	COMDAT ??_7bad_array_new_length@std@@6B@
CONST	SEGMENT
??_7bad_array_new_length@std@@6B@ DQ FLAT:??_R4bad_array_new_length@std@@6B@ ; std::bad_array_new_length::`vftable'
	DQ	FLAT:??_Ebad_array_new_length@std@@UEAAPEAXI@Z
	DQ	FLAT:?what@exception@std@@UEBAPEBDXZ
CONST	ENDS
;	COMDAT ??_R3Object@Json@@8
rdata$r	SEGMENT
??_R3Object@Json@@8 DD 00H				; Json::Object::`RTTI Class Hierarchy Descriptor'
	DD	00H
	DD	02H
	DD	imagerel ??_R2Object@Json@@8
rdata$r	ENDS
;	COMDAT ??_R3Number@Json@@8
rdata$r	SEGMENT
??_R3Number@Json@@8 DD 00H				; Json::Number::`RTTI Class Hierarchy Descriptor'
	DD	00H
	DD	02H
	DD	imagerel ??_R2Number@Json@@8
rdata$r	ENDS
;	COMDAT _CTA3?AVbad_array_new_length@std@@
xdata$x	SEGMENT
_CTA3?AVbad_array_new_length@std@@ DD 03H
	DD	imagerel _CT??_R0?AVbad_array_new_length@std@@@8??0bad_array_new_length@std@@QEAA@AEBV01@@Z24
	DD	imagerel _CT??_R0?AVbad_alloc@std@@@8??0bad_alloc@std@@QEAA@AEBV01@@Z24
	DD	imagerel _CT??_R0?AVexception@std@@@8??0exception@std@@QEAA@AEBV01@@Z24
xdata$x	ENDS
;	COMDAT ??_R0?AV_System_error_category@std@@@8
data$rs	SEGMENT
??_R0?AV_System_error_category@std@@@8 DQ FLAT:??_7type_info@@6B@ ; std::_System_error_category `RTTI Type Descriptor'
	DQ	0000000000000000H
	DB	'.?AV_System_error_category@std@@', 00H
data$rs	ENDS
;	COMDAT ??_R0?AVsystem_error@std@@@8
data$r	SEGMENT
??_R0?AVsystem_error@std@@@8 DQ FLAT:??_7type_info@@6B@	; std::system_error `RTTI Type Descriptor'
	DQ	0000000000000000H
	DB	'.?AVsystem_error@std@@', 00H
data$r	ENDS
;	COMDAT ??_7Number@Json@@6B@
CONST	SEGMENT
??_7Number@Json@@6B@ DQ FLAT:??_R4Number@Json@@6B@	; Json::Number::`vftable'
	DQ	FLAT:??_ENumber@Json@@UEAAPEAXI@Z
	DQ	FLAT:?isArray@Number@Json@@UEBA_NXZ
	DQ	FLAT:?isBool@Number@Json@@UEBA_NXZ
	DQ	FLAT:?isNumber@Number@Json@@UEBA_NXZ
	DQ	FLAT:?isObject@Number@Json@@UEBA_NXZ
	DQ	FLAT:?isString@Number@Json@@UEBA_NXZ
	DQ	FLAT:?isNull@Number@Json@@UEBA_NXZ
CONST	ENDS
;	COMDAT ??_R2_System_error@std@@8
rdata$r	SEGMENT
??_R2_System_error@std@@8 DD imagerel ??_R1A@?0A@EA@_System_error@std@@8 ; std::_System_error::`RTTI Base Class Array'
	DD	imagerel ??_R1A@?0A@EA@runtime_error@std@@8
	DD	imagerel ??_R1A@?0A@EA@exception@std@@8
	ORG $+3
rdata$r	ENDS
;	COMDAT ??_R0?AVerror_category@std@@@8
data$rs	SEGMENT
??_R0?AVerror_category@std@@@8 DQ FLAT:??_7type_info@@6B@ ; std::error_category `RTTI Type Descriptor'
	DQ	0000000000000000H
	DB	'.?AVerror_category@std@@', 00H
data$rs	ENDS
;	COMDAT ??_7_Generic_error_category@std@@6B@
CONST	SEGMENT
??_7_Generic_error_category@std@@6B@ DQ FLAT:??_R4_Generic_error_category@std@@6B@ ; std::_Generic_error_category::`vftable'
	DQ	FLAT:??_E_Generic_error_category@std@@UEAAPEAXI@Z
	DQ	FLAT:?name@_Generic_error_category@std@@UEBAPEBDXZ
	DQ	FLAT:?message@_Generic_error_category@std@@UEBA?AV?$basic_string@DU?$char_traits@D@std@@V?$allocator@D@2@@2@H@Z
	DQ	FLAT:?default_error_condition@error_category@std@@UEBA?AVerror_condition@2@H@Z
	DQ	FLAT:?equivalent@error_category@std@@UEBA_NAEBVerror_code@2@H@Z
	DQ	FLAT:?equivalent@error_category@std@@UEBA_NHAEBVerror_condition@2@@Z
CONST	ENDS
;	COMDAT ??_R2bad_alloc@std@@8
rdata$r	SEGMENT
??_R2bad_alloc@std@@8 DD imagerel ??_R1A@?0A@EA@bad_alloc@std@@8 ; std::bad_alloc::`RTTI Base Class Array'
	DD	imagerel ??_R1A@?0A@EA@exception@std@@8
	ORG $+3
rdata$r	ENDS
;	COMDAT ??_R4_Generic_error_category@std@@6B@
rdata$r	SEGMENT
??_R4_Generic_error_category@std@@6B@ DD 01H		; std::_Generic_error_category::`RTTI Complete Object Locator'
	DD	00H
	DD	00H
	DD	imagerel ??_R0?AV_Generic_error_category@std@@@8
	DD	imagerel ??_R3_Generic_error_category@std@@8
	DD	imagerel ??_R4_Generic_error_category@std@@6B@
rdata$r	ENDS
;	COMDAT ??_R4_System_error@std@@6B@
rdata$r	SEGMENT
??_R4_System_error@std@@6B@ DD 01H			; std::_System_error::`RTTI Complete Object Locator'
	DD	00H
	DD	00H
	DD	imagerel ??_R0?AV_System_error@std@@@8
	DD	imagerel ??_R3_System_error@std@@8
	DD	imagerel ??_R4_System_error@std@@6B@
rdata$r	ENDS
;	COMDAT ??_7Bool@Json@@6B@
CONST	SEGMENT
??_7Bool@Json@@6B@ DQ FLAT:??_R4Bool@Json@@6B@		; Json::Bool::`vftable'
	DQ	FLAT:??_EBool@Json@@UEAAPEAXI@Z
	DQ	FLAT:?isArray@Bool@Json@@UEBA_NXZ
	DQ	FLAT:?isBool@Bool@Json@@UEBA_NXZ
	DQ	FLAT:?isNumber@Bool@Json@@UEBA_NXZ
	DQ	FLAT:?isObject@Bool@Json@@UEBA_NXZ
	DQ	FLAT:?isString@Bool@Json@@UEBA_NXZ
	DQ	FLAT:?isNull@Bool@Json@@UEBA_NXZ
CONST	ENDS
;	COMDAT ??_R4_System_error_category@std@@6B@
rdata$r	SEGMENT
??_R4_System_error_category@std@@6B@ DD 01H		; std::_System_error_category::`RTTI Complete Object Locator'
	DD	00H
	DD	00H
	DD	imagerel ??_R0?AV_System_error_category@std@@@8
	DD	imagerel ??_R3_System_error_category@std@@8
	DD	imagerel ??_R4_System_error_category@std@@6B@
rdata$r	ENDS
;	COMDAT _TI4?AVsystem_error@std@@
xdata$x	SEGMENT
_TI4?AVsystem_error@std@@ DD 00H
	DD	imagerel ??1system_error@std@@UEAA@XZ
	DD	00H
	DD	imagerel _CTA4?AVsystem_error@std@@
xdata$x	ENDS
;	COMDAT ??_R4Number@Json@@6B@
rdata$r	SEGMENT
??_R4Number@Json@@6B@ DD 01H				; Json::Number::`RTTI Complete Object Locator'
	DD	00H
	DD	00H
	DD	imagerel ??_R0?AVNumber@Json@@@8
	DD	imagerel ??_R3Number@Json@@8
	DD	imagerel ??_R4Number@Json@@6B@
rdata$r	ENDS
;	COMDAT ??_R0?AVbad_alloc@std@@@8
data$r	SEGMENT
??_R0?AVbad_alloc@std@@@8 DQ FLAT:??_7type_info@@6B@	; std::bad_alloc `RTTI Type Descriptor'
	DQ	0000000000000000H
	DB	'.?AVbad_alloc@std@@', 00H
data$r	ENDS
;	COMDAT ??_R1A@?0A@EA@system_error@std@@8
rdata$r	SEGMENT
??_R1A@?0A@EA@system_error@std@@8 DD imagerel ??_R0?AVsystem_error@std@@@8 ; std::system_error::`RTTI Base Class Descriptor at (0,-1,0,64)'
	DD	03H
	DD	00H
	DD	0ffffffffH
	DD	00H
	DD	040H
	DD	imagerel ??_R3system_error@std@@8
rdata$r	ENDS
;	COMDAT ??_R2system_error@std@@8
rdata$r	SEGMENT
??_R2system_error@std@@8 DD imagerel ??_R1A@?0A@EA@system_error@std@@8 ; std::system_error::`RTTI Base Class Array'
	DD	imagerel ??_R1A@?0A@EA@_System_error@std@@8
	DD	imagerel ??_R1A@?0A@EA@runtime_error@std@@8
	DD	imagerel ??_R1A@?0A@EA@exception@std@@8
	ORG $+3
rdata$r	ENDS
;	COMDAT ??_R2bad_array_new_length@std@@8
rdata$r	SEGMENT
??_R2bad_array_new_length@std@@8 DD imagerel ??_R1A@?0A@EA@bad_array_new_length@std@@8 ; std::bad_array_new_length::`RTTI Base Class Array'
	DD	imagerel ??_R1A@?0A@EA@bad_alloc@std@@8
	DD	imagerel ??_R1A@?0A@EA@exception@std@@8
	ORG $+3
rdata$r	ENDS
;	COMDAT ??_R2Null@Json@@8
rdata$r	SEGMENT
??_R2Null@Json@@8 DD imagerel ??_R1A@?0A@EA@Null@Json@@8 ; Json::Null::`RTTI Base Class Array'
	DD	imagerel ??_R1A@?0A@EA@Value@Json@@8
	ORG $+3
rdata$r	ENDS
;	COMDAT ??_R2Bool@Json@@8
rdata$r	SEGMENT
??_R2Bool@Json@@8 DD imagerel ??_R1A@?0A@EA@Bool@Json@@8 ; Json::Bool::`RTTI Base Class Array'
	DD	imagerel ??_R1A@?0A@EA@Value@Json@@8
	ORG $+3
rdata$r	ENDS
;	COMDAT ??_C@_0BK@OGNNAFAB@invalid?5hash?5bucket?5count@
CONST	SEGMENT
??_C@_0BK@OGNNAFAB@invalid?5hash?5bucket?5count@ DB 'invalid hash bucket '
	DB	'count', 00H					; `string'
CONST	ENDS
;	COMDAT ??_C@_0BI@CFPLBAOH@invalid?5string?5position@
CONST	SEGMENT
??_C@_0BI@CFPLBAOH@invalid?5string?5position@ DB 'invalid string position'
	DB	00H						; `string'
CONST	ENDS
;	COMDAT ??_C@_0BA@FOIKENOD@vector?5too?5long@
CONST	SEGMENT
??_C@_0BA@FOIKENOD@vector?5too?5long@ DB 'vector too long', 00H ; `string'
CONST	ENDS
;	COMDAT ??_C@_0BL@GOIGLPKN@unordered_map?1set?5too?5long@
CONST	SEGMENT
??_C@_0BL@GOIGLPKN@unordered_map?1set?5too?5long@ DB 'unordered_map/set t'
	DB	'oo long', 00H				; `string'
CONST	ENDS
;	COMDAT ??_C@_0BL@KLIDEEPE@Invalid?5escape?5sequence?3?5?2@
CONST	SEGMENT
??_C@_0BL@KLIDEEPE@Invalid?5escape?5sequence?3?5?2@ DB 'Invalid escape se'
	DB	'quence: \', 00H				; `string'
CONST	ENDS
;	COMDAT ??_C@_0BH@JICOIFBC@Invalid?5unicode?5escape@
CONST	SEGMENT
??_C@_0BH@JICOIFBC@Invalid?5unicode?5escape@ DB 'Invalid unicode escape', 00H ; `string'
CONST	ENDS
;	COMDAT ??_C@_0BN@LPMKJIHG@Unterminated?5escape?5sequence@
CONST	SEGMENT
??_C@_0BN@LPMKJIHG@Unterminated?5escape?5sequence@ DB 'Unterminated escap'
	DB	'e sequence', 00H				; `string'
CONST	ENDS
;	COMDAT ??_C@_0BG@PEGDFFCL@Endless?5block?5comment@
CONST	SEGMENT
??_C@_0BG@PEGDFFCL@Endless?5block?5comment@ DB 'Endless block comment', 00H ; `string'
CONST	ENDS
;	COMDAT ??_C@_0BH@NMENEEPL@Invalid?5comment?5syntax@
CONST	SEGMENT
??_C@_0BH@NMENEEPL@Invalid?5comment?5syntax@ DB 'Invalid comment syntax', 00H ; `string'
CONST	ENDS
;	COMDAT ??_C@_0BF@GONMNCPG@Invalid?5null?5literal@
CONST	SEGMENT
??_C@_0BF@GONMNCPG@Invalid?5null?5literal@ DB 'Invalid null literal', 00H ; `string'
CONST	ENDS
;	COMDAT ??_C@_0BL@MHJMKGJM@Invalid?5bool?5false?5literal@
CONST	SEGMENT
??_C@_0BL@MHJMKGJM@Invalid?5bool?5false?5literal@ DB 'Invalid bool false '
	DB	'literal', 00H				; `string'
CONST	ENDS
;	COMDAT ??_C@_0BK@GDBLDPAM@Invalid?5bool?5true?5literal@
CONST	SEGMENT
??_C@_0BK@GDBLDPAM@Invalid?5bool?5true?5literal@ DB 'Invalid bool true li'
	DB	'teral', 00H					; `string'
CONST	ENDS
;	COMDAT ??_C@_0BG@GELOLNAM@Invalid?5string?5syntax@
CONST	SEGMENT
??_C@_0BG@GELOLNAM@Invalid?5string?5syntax@ DB 'Invalid string syntax', 00H ; `string'
CONST	ENDS
;	COMDAT ??_C@_0CF@PAAGCNKK@No?5value?5separator?5after?5array?5@
CONST	SEGMENT
??_C@_0CF@PAAGCNKK@No?5value?5separator?5after?5array?5@ DB 'No value sep'
	DB	'arator after array value', 00H		; `string'
CONST	ENDS
;	COMDAT ??_C@_0O@ELDHGBOG@Endless?5array@
CONST	SEGMENT
??_C@_0O@ELDHGBOG@Endless?5array@ DB 'Endless array', 00H ; `string'
CONST	ENDS
;	COMDAT ??_C@_0BI@OEGKDOAJ@Invalid?5object?5syntax?3?5@
CONST	SEGMENT
??_C@_0BI@OEGKDOAJ@Invalid?5object?5syntax?3?5@ DB 'Invalid object syntax'
	DB	': ', 00H					; `string'
CONST	ENDS
;	COMDAT ??_C@_0CG@LKKKBDCI@No?5value?5separator?5after?5object@
CONST	SEGMENT
??_C@_0CG@LKKKBDCI@No?5value?5separator?5after?5object@ DB 'No value sepa'
	DB	'rator after object value', 00H		; `string'
CONST	ENDS
;	COMDAT ??_C@_0CD@DNDGJFLJ@No?5name?5separator?5after?5object?5@
CONST	SEGMENT
??_C@_0CD@DNDGJFLJ@No?5name?5separator?5after?5object?5@ DB 'No name sepa'
	DB	'rator after object key', 00H		; `string'
CONST	ENDS
;	COMDAT ??_C@_0P@JPNLNIKK@Endless?5object@
CONST	SEGMENT
??_C@_0P@JPNLNIKK@Endless?5object@ DB 'Endless object', 00H ; `string'
CONST	ENDS
;	COMDAT ??_C@_0BA@IDEJNKDC@Duplicate?5key?3?5@
CONST	SEGMENT
??_C@_0BA@IDEJNKDC@Duplicate?5key?3?5@ DB 'Duplicate key: ', 00H ; `string'
CONST	ENDS
;	COMDAT ??_C@_0BH@HJFABALL@Invalid?5value?5syntax?3?5@
CONST	SEGMENT
??_C@_0BH@HJFABALL@Invalid?5value?5syntax?3?5@ DB 'Invalid value syntax: '
	DB	00H						; `string'
CONST	ENDS
;	COMDAT ??_C@_0BG@LNPEEPID@JSON?5parsing?5failed?3?5@
CONST	SEGMENT
??_C@_0BG@LNPEEPID@JSON?5parsing?5failed?3?5@ DB 'JSON parsing failed: ', 00H ; `string'
CONST	ENDS
;	COMDAT ??_C@_0P@DIIHGOMM@Tests?5Complete@
CONST	SEGMENT
??_C@_0P@DIIHGOMM@Tests?5Complete@ DB 'Tests Complete', 00H ; `string'
CONST	ENDS
;	COMDAT ??_C@_0BA@ILONKDDB@?$HL?$CCkey?$CC?5?5?3?5True?$HN@
CONST	SEGMENT
??_C@_0BA@ILONKDDB@?$HL?$CCkey?$CC?5?5?3?5True?$HN@ DB '{"key"  : True}', 00H ; `string'
CONST	ENDS
;	COMDAT ??_C@_0BA@DBAEGCNG@invalid?5boolean@
CONST	SEGMENT
??_C@_0BA@DBAEGCNG@invalid?5boolean@ DB 'invalid boolean', 00H ; `string'
CONST	ENDS
;	COMDAT ??_C@_0BB@JHLOACMA@?$HLkey?5?5?3?5?$CCvalue?$CC?$HN@
CONST	SEGMENT
??_C@_0BB@JHLOACMA@?$HLkey?5?5?3?5?$CCvalue?$CC?$HN@ DB '{key  : "value"}'
	DB	00H						; `string'
CONST	ENDS
;	COMDAT ??_C@_0N@MFNDGBHA@unquoted?5key@
CONST	SEGMENT
??_C@_0N@MFNDGBHA@unquoted?5key@ DB 'unquoted key', 00H	; `string'
CONST	ENDS
;	COMDAT ??_C@_0O@BMANBFNP@?$FL1?5?0?52?5?5?0?53?0?$FN@
CONST	SEGMENT
??_C@_0O@BMANBFNP@?$FL1?5?0?52?5?5?0?53?0?$FN@ DB '[1 , 2  , 3,]', 00H ; `string'
CONST	ENDS
;	COMDAT ??_C@_0P@FPDKDABD@trailing?5comma@
CONST	SEGMENT
??_C@_0P@FPDKDABD@trailing?5comma@ DB 'trailing comma', 00H ; `string'
CONST	ENDS
;	COMDAT ??_C@_0CB@DPEKOPIL@?$HL?1?$CK?5comment?5?$CK?1?$CCkey?$CC?5?5?5?3?5?$CCvalue?$CC@
CONST	SEGMENT
??_C@_0CB@DPEKOPIL@?$HL?1?$CK?5comment?5?$CK?1?$CCkey?$CC?5?5?5?3?5?$CCvalue?$CC@ DB '{'
	DB	'/* comment */"key"   : "value"}', 00H	; `string'
CONST	ENDS
;	COMDAT ??_C@_0O@BMAILJLI@block?5comment@
CONST	SEGMENT
??_C@_0O@BMAILJLI@block?5comment@ DB 'block comment', 00H ; `string'
CONST	ENDS
;	COMDAT ??_C@_0BM@MOAPCOHB@?$HL?$CCkey?$CC?3?5?$CCvalue?$CC?$HN?5?1?1?5comment@
CONST	SEGMENT
??_C@_0BM@MOAPCOHB@?$HL?$CCkey?$CC?3?5?$CCvalue?$CC?$HN?5?1?1?5comment@ DB '{'
	DB	'"key": "value"} // comment', 00H		; `string'
CONST	ENDS
;	COMDAT ??_C@_0N@JFBEBFCN@line?5comment@
CONST	SEGMENT
??_C@_0N@JFBEBFCN@line?5comment@ DB 'line comment', 00H	; `string'
CONST	ENDS
;	COMDAT ??_C@_07BFBMOLCB@1?423e10@
CONST	SEGMENT
??_C@_07BFBMOLCB@1?423e10@ DB '1.23e10', 00H		; `string'
CONST	ENDS
;	COMDAT ??_C@_0BE@FOJKOFAH@scientific?5notation@
CONST	SEGMENT
??_C@_0BE@FOJKOFAH@scientific?5notation@ DB 'scientific notation', 00H ; `string'
CONST	ENDS
;	COMDAT ??_C@_04MLLLIHIP@null@
CONST	SEGMENT
??_C@_04MLLLIHIP@null@ DB 'null', 00H			; `string'
CONST	ENDS
;	COMDAT ??_C@_0L@DGHNIOOK@null?5value@
CONST	SEGMENT
??_C@_0L@DGHNIOOK@null?5value@ DB 'null value', 00H	; `string'
CONST	ENDS
;	COMDAT ??_C@_07GOBOHMJA@boolean@
CONST	SEGMENT
??_C@_07GOBOHMJA@boolean@ DB 'boolean', 00H		; `string'
CONST	ENDS
;	COMDAT ??_C@_02MOKMDPNA@42@
CONST	SEGMENT
??_C@_02MOKMDPNA@42@ DB '42', 00H			; `string'
CONST	ENDS
;	COMDAT ??_C@_0O@HOFEIIEH@simple?5number@
CONST	SEGMENT
??_C@_0O@HOFEIIEH@simple?5number@ DB 'simple number', 00H ; `string'
CONST	ENDS
;	COMDAT ??_C@_09MBCGMDGP@?$FL1?0?52?0?53?$FN@
CONST	SEGMENT
??_C@_09MBCGMDGP@?$FL1?0?52?0?53?$FN@ DB '[1, 2, 3]', 00H ; `string'
CONST	ENDS
;	COMDAT ??_C@_0N@PEMCCABF@simple?5array@
CONST	SEGMENT
??_C@_0N@PEMCCABF@simple?5array@ DB 'simple array', 00H	; `string'
CONST	ENDS
;	COMDAT ??_C@_0BB@KHKLOMNG@?$HL?$CCkey?$CC?3?5?$CCvalue?$CC?$HN@
CONST	SEGMENT
??_C@_0BB@KHKLOMNG@?$HL?$CCkey?$CC?3?5?$CCvalue?$CC?$HN@ DB '{"key": "val'
	DB	'ue"}', 00H					; `string'
CONST	ENDS
;	COMDAT ??_C@_0O@LLNAIOEN@simple?5object@
CONST	SEGMENT
??_C@_0O@LLNAIOEN@simple?5object@ DB 'simple object', 00H ; `string'
CONST	ENDS
;	COMDAT ??_C@_0BI@OIDPJICJ@tests?1test_invalid?4json@
CONST	SEGMENT
??_C@_0BI@OIDPJICJ@tests?1test_invalid?4json@ DB 'tests/test_invalid.json'
	DB	00H						; `string'
CONST	ENDS
;	COMDAT ??_C@_0BL@OLMDAAM@tests?1test_edge_cases?4json@
CONST	SEGMENT
??_C@_0BL@OLMDAAM@tests?1test_edge_cases?4json@ DB 'tests/test_edge_cases'
	DB	'.json', 00H					; `string'
CONST	ENDS
;	COMDAT ??_C@_0BA@DPKMFFGL@tests?1test?4json@
CONST	SEGMENT
??_C@_0BA@DPKMFFGL@tests?1test?4json@ DB 'tests/test.json', 00H ; `string'
CONST	ENDS
;	COMDAT ??_C@_0BK@LGBBHECN@?$DN?$DN?$DN?5JSON?5Parser?5Tests?5?$DN?$DN?$DN@
CONST	SEGMENT
??_C@_0BK@LGBBHECN@?$DN?$DN?$DN?5JSON?5Parser?5Tests?5?$DN?$DN?$DN@ DB '='
	DB	'== JSON Parser Tests ===', 00H		; `string'
CONST	ENDS
;	COMDAT ??_C@_06MBANMAIC@PASSED@
CONST	SEGMENT
??_C@_06MBANMAIC@PASSED@ DB 'PASSED', 00H		; `string'
CONST	ENDS
;	COMDAT ??_C@_0BJ@CMPAICOO@PASSED?5?$CIcorrectly?5threw?$CJ@
CONST	SEGMENT
??_C@_0BJ@CMPAICOO@PASSED?5?$CIcorrectly?5threw?$CJ@ DB 'PASSED (correctl'
	DB	'y threw)', 00H				; `string'
CONST	ENDS
;	COMDAT ??_C@_08MAFNPFKF@FAILED?3?5@
CONST	SEGMENT
??_C@_08MAFNPFKF@FAILED?3?5@ DB 'FAILED: ', 00H		; `string'
CONST	ENDS
;	COMDAT ??_C@_0CC@JOIEAPN@FAILED?5?$CIshould?5have?5thrown?5erro@
CONST	SEGMENT
??_C@_0CC@JOIEAPN@FAILED?5?$CIshould?5have?5thrown?5erro@ DB 'FAILED (sho'
	DB	'uld have thrown error)', 00H		; `string'
CONST	ENDS
;	COMDAT ??_C@_08PHMBBBDO@PASSED?5?$CI@
CONST	SEGMENT
??_C@_08PHMBBBDO@PASSED?5?$CI@ DB 'PASSED (', 00H	; `string'
CONST	ENDS
;	COMDAT ??_C@_0M@LPFCHOHD@?5documents?$CJ@
CONST	SEGMENT
??_C@_0M@LPFCHOHD@?5documents?$CJ@ DB ' documents)', 00H ; `string'
CONST	ENDS
;	COMDAT ??_C@_08HELHLMJO@Testing?5@
CONST	SEGMENT
??_C@_08HELHLMJO@Testing?5@ DB 'Testing ', 00H		; `string'
CONST	ENDS
;	COMDAT ??_C@_04KAJGAOMC@?4?4?4?5@
CONST	SEGMENT
??_C@_04KAJGAOMC@?4?4?4?5@ DB '... ', 00H		; `string'
CONST	ENDS
;	COMDAT ??_C@_0BB@PFCEIHCG@File?5not?5found?3?5@
CONST	SEGMENT
??_C@_0BB@PFCEIHCG@File?5not?5found?3?5@ DB 'File not found: ', 00H ; `string'
CONST	ENDS
;	COMDAT ??_C@_04LOAJBDKD@true@
CONST	SEGMENT
??_C@_04LOAJBDKD@true@ DB 'true', 00H			; `string'
CONST	ENDS
;	COMDAT ??_C@_06FHFOAHML@system@
CONST	SEGMENT
??_C@_06FHFOAHML@system@ DB 'system', 00H		; `string'
CONST	ENDS
;	COMDAT ??_C@_07DCLBNMLN@generic@
CONST	SEGMENT
??_C@_07DCLBNMLN@generic@ DB 'generic', 00H		; `string'
CONST	ENDS
;	COMDAT ??_C@_0BL@PPHDABKE@stod?5argument?5out?5of?5range@
CONST	SEGMENT
??_C@_0BL@PPHDABKE@stod?5argument?5out?5of?5range@ DB 'stod argument out '
	DB	'of range', 00H				; `string'
CONST	ENDS
;	COMDAT ??_C@_0BG@LNNHAOEF@invalid?5stod?5argument@
CONST	SEGMENT
??_C@_0BG@LNNHAOEF@invalid?5stod?5argument@ DB 'invalid stod argument', 00H ; `string'
CONST	ENDS
;	COMDAT ??_C@_0BM@MOLGGFGJ@stoul?5argument?5out?5of?5range@
CONST	SEGMENT
??_C@_0BM@MOLGGFGJ@stoul?5argument?5out?5of?5range@ DB 'stoul argument ou'
	DB	't of range', 00H				; `string'
CONST	ENDS
;	COMDAT ??_C@_0BH@DPNNDOEK@invalid?5stoul?5argument@
CONST	SEGMENT
??_C@_0BH@DPNNDOEK@invalid?5stoul?5argument@ DB 'invalid stoul argument', 00H ; `string'
CONST	ENDS
;	COMDAT ??_C@_0BA@JFNIOLAK@string?5too?5long@
CONST	SEGMENT
??_C@_0BA@JFNIOLAK@string?5too?5long@ DB 'string too long', 00H ; `string'
CONST	ENDS
;	COMDAT ??_C@_0BF@KINCDENJ@bad?5array?5new?5length@
CONST	SEGMENT
??_C@_0BF@KINCDENJ@bad?5array?5new?5length@ DB 'bad array new length', 00H ; `string'
PUBLIC	?compare@?$_Narrow_char_traits@DH@std@@SAHQEBD0_K@Z ; std::_Narrow_char_traits<char,int>::compare
PUBLIC	?_Orphan_non_end@?$_List_val@U?$_List_simple_types@U?$pair@$$CBV?$basic_string@DU?$char_traits@D@std@@V?$allocator@D@2@@std@@V?$unique_ptr@VValue@Json@@U?$default_delete@VValue@Json@@@std@@@2@@std@@@std@@@std@@QEAAXXZ ; std::_List_val<std::_List_simple_types<std::pair<std::basic_string<char,std::char_traits<char>,std::allocator<char> > const ,std::unique_ptr<Json::Value,std::default_delete<Json::Value> > > > >::_Orphan_non_end
PUBLIC	??0_Range_eraser@?$_Hash@V?$_Umap_traits@V?$basic_string@DU?$char_traits@D@std@@V?$allocator@D@2@@std@@V?$unique_ptr@VValue@Json@@U?$default_delete@VValue@Json@@@std@@@2@V?$_Uhash_compare@V?$basic_string@DU?$char_traits@D@std@@V?$allocator@D@2@@std@@U?$hash@V?$basic_string@DU?$char_traits@D@std@@V?$allocator@D@2@@std@@@2@U?$equal_to@V?$basic_string@DU?$char_traits@D@std@@V?$allocator@D@2@@std@@@2@@2@V?$allocator@U?$pair@$$CBV?$basic_string@DU?$char_traits@D@std@@V?$allocator@D@2@@std@@V?$unique_ptr@VValue@Json@@U?$default_delete@VValue@Json@@@std@@@2@@std@@@2@$0A@@std@@@std@@QEAA@AEAV?$list@U?$pair@$$CBV?$basic_string@DU?$char_traits@D@std@@V?$allocator@D@2@@std@@V?$unique_ptr@VValue@Json@@U?$default_delete@VValue@Json@@@std@@@2@@std@@V?$allocator@U?$pair@$$CBV?$basic_string@DU?$char_traits@D@std@@V?$allocator@D@2@@std@@V?$unique_ptr@VValue@Json@@U?$default_delete@VValue@Json@@@std@@@2@@std@@@2@@2@QEAU?$_List_node@U?$pair@$$CBV?$basic_string@DU?$char_traits@D@std@@V?$allocator@D@2@@std@@V?$unique_ptr@VValue@Json@@U?$default_delete@VValue@Json@@@std@@@2@@std@@PEAX@2@@Z ; std::_Hash<std::_Umap_traits<std::basic_string<char,std::char_traits<char>,std::allocator<char> >,std::unique_ptr<Json::Value,std::default_delete<Json::Value> >,std::_Uhash_compare<std::basic_string<char,std::char_traits<char>,std::allocator<char> >,std::hash<std::basic_string<char,std::char_traits<char>,std::allocator<char> > >,std::equal_to<std::basic_string<char,std::char_traits<char>,std::allocator<char> > > >,std::allocator<std::pair<std::basic_string<char,std::char_traits<char>,std::allocator<char> > const ,std::unique_ptr<Json::Value,std::default_delete<Json::Value> > > >,0> >::_Range_eraser::_Range_eraser
PUBLIC	?_Bump_erased@_Range_eraser@?$_Hash@V?$_Umap_traits@V?$basic_string@DU?$char_traits@D@std@@V?$allocator@D@2@@std@@V?$unique_ptr@VValue@Json@@U?$default_delete@VValue@Json@@@std@@@2@V?$_Uhash_compare@V?$basic_string@DU?$char_traits@D@std@@V?$allocator@D@2@@std@@U?$hash@V?$basic_string@DU?$char_traits@D@std@@V?$allocator@D@2@@std@@@2@U?$equal_to@V?$basic_string@DU?$char_traits@D@std@@V?$allocator@D@2@@std@@@2@@2@V?$allocator@U?$pair@$$CBV?$basic_string@DU?$char_traits@D@std@@V?$allocator@D@2@@std@@V?$unique_ptr@VValue@Json@@U?$default_delete@VValue@Json@@@std@@@2@@std@@@2@$0A@@std@@@std@@QEAAXXZ ; std::_Hash<std::_Umap_traits<std::basic_string<char,std::char_traits<char>,std::allocator<char> >,std::unique_ptr<Json::Value,std::default_delete<Json::Value> >,std::_Uhash_compare<std::basic_string<char,std::char_traits<char>,std::allocator<char> >,std::hash<std::basic_string<char,std::char_traits<char>,std::allocator<char> > >,std::equal_to<std::basic_string<char,std::char_traits<char>,std::allocator<char> > > >,std::allocator<std::pair<std::basic_string<char,std::char_traits<char>,std::allocator<char> > const ,std::unique_ptr<Json::Value,std::default_delete<Json::Value> > > >,0> >::_Range_eraser::_Bump_erased
PUBLIC	??1_Range_eraser@?$_Hash@V?$_Umap_traits@V?$basic_string@DU?$char_traits@D@std@@V?$allocator@D@2@@std@@V?$unique_ptr@VValue@Json@@U?$default_delete@VValue@Json@@@std@@@2@V?$_Uhash_compare@V?$basic_string@DU?$char_traits@D@std@@V?$allocator@D@2@@std@@U?$hash@V?$basic_string@DU?$char_traits@D@std@@V?$allocator@D@2@@std@@@2@U?$equal_to@V?$basic_string@DU?$char_traits@D@std@@V?$allocator@D@2@@std@@@2@@2@V?$allocator@U?$pair@$$CBV?$basic_string@DU?$char_traits@D@std@@V?$allocator@D@2@@std@@V?$unique_ptr@VValue@Json@@U?$default_delete@VValue@Json@@@std@@@2@@std@@@2@$0A@@std@@@std@@QEAA@XZ ; std::_Hash<std::_Umap_traits<std::basic_string<char,std::char_traits<char>,std::allocator<char> >,std::unique_ptr<Json::Value,std::default_delete<Json::Value> >,std::_Uhash_compare<std::basic_string<char,std::char_traits<char>,std::allocator<char> >,std::hash<std::basic_string<char,std::char_traits<char>,std::allocator<char> > >,std::equal_to<std::basic_string<char,std::char_traits<char>,std::allocator<char> > > >,std::allocator<std::pair<std::basic_string<char,std::char_traits<char>,std::allocator<char> > const ,std::unique_ptr<Json::Value,std::default_delete<Json::Value> > > >,0> >::_Range_eraser::~_Range_eraser
PUBLIC	??$_Traits_equal@U?$char_traits@D@std@@@std@@YA_NQEBD_K01@Z ; std::_Traits_equal<std::char_traits<char> >
PUBLIC	?_Equal@?$basic_string@DU?$char_traits@D@std@@V?$allocator@D@2@@std@@QEBA_NAEBV12@@Z ; std::basic_string<char,std::char_traits<char>,std::allocator<char> >::_Equal
PUBLIC	?_Unchecked_erase@?$_Hash@V?$_Umap_traits@V?$basic_string@DU?$char_traits@D@std@@V?$allocator@D@2@@std@@V?$unique_ptr@VValue@Json@@U?$default_delete@VValue@Json@@@std@@@2@V?$_Uhash_compare@V?$basic_string@DU?$char_traits@D@std@@V?$allocator@D@2@@std@@U?$hash@V?$basic_string@DU?$char_traits@D@std@@V?$allocator@D@2@@std@@@2@U?$equal_to@V?$basic_string@DU?$char_traits@D@std@@V?$allocator@D@2@@std@@@2@@2@V?$allocator@U?$pair@$$CBV?$basic_string@DU?$char_traits@D@std@@V?$allocator@D@2@@std@@V?$unique_ptr@VValue@Json@@U?$default_delete@VValue@Json@@@std@@@2@@std@@@2@$0A@@std@@@std@@AEAAPEAU?$_List_node@U?$pair@$$CBV?$basic_string@DU?$char_traits@D@std@@V?$allocator@D@2@@std@@V?$unique_ptr@VValue@Json@@U?$default_delete@VValue@Json@@@std@@@2@@std@@PEAX@2@PEAU32@QEAU32@@Z ; std::_Hash<std::_Umap_traits<std::basic_string<char,std::char_traits<char>,std::allocator<char> >,std::unique_ptr<Json::Value,std::default_delete<Json::Value> >,std::_Uhash_compare<std::basic_string<char,std::char_traits<char>,std::allocator<char> >,std::hash<std::basic_string<char,std::char_traits<char>,std::allocator<char> > >,std::equal_to<std::basic_string<char,std::char_traits<char>,std::allocator<char> > > >,std::allocator<std::pair<std::basic_string<char,std::char_traits<char>,std::allocator<char> > const ,std::unique_ptr<Json::Value,std::default_delete<Json::Value> > > >,0> >::_Unchecked_erase
PUBLIC	?clear@?$list@U?$pair@$$CBV?$basic_string@DU?$char_traits@D@std@@V?$allocator@D@2@@std@@V?$unique_ptr@VValue@Json@@U?$default_delete@VValue@Json@@@std@@@2@@std@@V?$allocator@U?$pair@$$CBV?$basic_string@DU?$char_traits@D@std@@V?$allocator@D@2@@std@@V?$unique_ptr@VValue@Json@@U?$default_delete@VValue@Json@@@std@@@2@@std@@@2@@std@@QEAAXXZ ; std::list<std::pair<std::basic_string<char,std::char_traits<char>,std::allocator<char> > const ,std::unique_ptr<Json::Value,std::default_delete<Json::Value> > >,std::allocator<std::pair<std::basic_string<char,std::char_traits<char>,std::allocator<char> > const ,std::unique_ptr<Json::Value,std::default_delete<Json::Value> > > > >::clear
PUBLIC	?_Get_max_bucket_size@?$_Uhash_compare@V?$basic_string@DU?$char_traits@D@std@@V?$allocator@D@2@@std@@U?$hash@V?$basic_string@DU?$char_traits@D@std@@V?$allocator@D@2@@std@@@2@U?$equal_to@V?$basic_string@DU?$char_traits@D@std@@V?$allocator@D@2@@std@@@2@@std@@QEBAAEBMXZ ; std::_Uhash_compare<std::basic_string<char,std::char_traits<char>,std::allocator<char> >,std::hash<std::basic_string<char,std::char_traits<char>,std::allocator<char> > >,std::equal_to<std::basic_string<char,std::char_traits<char>,std::allocator<char> > > >::_Get_max_bucket_size
PUBLIC	?clear@?$_Hash@V?$_Umap_traits@V?$basic_string@DU?$char_traits@D@std@@V?$allocator@D@2@@std@@V?$unique_ptr@VValue@Json@@U?$default_delete@VValue@Json@@@std@@@2@V?$_Uhash_compare@V?$basic_string@DU?$char_traits@D@std@@V?$allocator@D@2@@std@@U?$hash@V?$basic_string@DU?$char_traits@D@std@@V?$allocator@D@2@@std@@@2@U?$equal_to@V?$basic_string@DU?$char_traits@D@std@@V?$allocator@D@2@@std@@@2@@2@V?$allocator@U?$pair@$$CBV?$basic_string@DU?$char_traits@D@std@@V?$allocator@D@2@@std@@V?$unique_ptr@VValue@Json@@U?$default_delete@VValue@Json@@@std@@@2@@std@@@2@$0A@@std@@@std@@QEAAXXZ ; std::_Hash<std::_Umap_traits<std::basic_string<char,std::char_traits<char>,std::allocator<char> >,std::unique_ptr<Json::Value,std::default_delete<Json::Value> >,std::_Uhash_compare<std::basic_string<char,std::char_traits<char>,std::allocator<char> >,std::hash<std::basic_string<char,std::char_traits<char>,std::allocator<char> > >,std::equal_to<std::basic_string<char,std::char_traits<char>,std::allocator<char> > > >,std::allocator<std::pair<std::basic_string<char,std::char_traits<char>,std::allocator<char> > const ,std::unique_ptr<Json::Value,std::default_delete<Json::Value> > > >,0> >::clear
PUBLIC	?_Unchecked_begin@?$list@U?$pair@$$CBV?$basic_string@DU?$char_traits@D@std@@V?$allocator@D@2@@std@@V?$unique_ptr@VValue@Json@@U?$default_delete@VValue@Json@@@std@@@2@@std@@V?$allocator@U?$pair@$$CBV?$basic_string@DU?$char_traits@D@std@@V?$allocator@D@2@@std@@V?$unique_ptr@VValue@Json@@U?$default_delete@VValue@Json@@@std@@@2@@std@@@2@@std@@QEAA?AV?$_List_unchecked_iterator@V?$_List_val@U?$_List_simple_types@U?$pair@$$CBV?$basic_string@DU?$char_traits@D@std@@V?$allocator@D@2@@std@@V?$unique_ptr@VValue@Json@@U?$default_delete@VValue@Json@@@std@@@2@@std@@@std@@@std@@@2@XZ ; std::list<std::pair<std::basic_string<char,std::char_traits<char>,std::allocator<char> > const ,std::unique_ptr<Json::Value,std::default_delete<Json::Value> > >,std::allocator<std::pair<std::basic_string<char,std::char_traits<char>,std::allocator<char> > const ,std::unique_ptr<Json::Value,std::default_delete<Json::Value> > > > >::_Unchecked_begin
PUBLIC	?_Get_first@?$_Compressed_pair@V?$allocator@U?$_List_node@U?$pair@$$CBV?$basic_string@DU?$char_traits@D@std@@V?$allocator@D@2@@std@@V?$unique_ptr@VValue@Json@@U?$default_delete@VValue@Json@@@std@@@2@@std@@PEAX@std@@@std@@V?$_List_val@U?$_List_simple_types@U?$pair@$$CBV?$basic_string@DU?$char_traits@D@std@@V?$allocator@D@2@@std@@V?$unique_ptr@VValue@Json@@U?$default_delete@VValue@Json@@@std@@@2@@std@@@std@@@2@$00@std@@QEBAAEBV?$allocator@U?$_List_node@U?$pair@$$CBV?$basic_string@DU?$char_traits@D@std@@V?$allocator@D@2@@std@@V?$unique_ptr@VValue@Json@@U?$default_delete@VValue@Json@@@std@@@2@@std@@PEAX@std@@@2@XZ ; std::_Compressed_pair<std::allocator<std::_List_node<std::pair<std::basic_string<char,std::char_traits<char>,std::allocator<char> > const ,std::unique_ptr<Json::Value,std::default_delete<Json::Value> > >,void *> >,std::_List_val<std::_List_simple_types<std::pair<std::basic_string<char,std::char_traits<char>,std::allocator<char> > const ,std::unique_ptr<Json::Value,std::default_delete<Json::Value> > > > >,1>::_Get_first
PUBLIC	?max_size@?$_Default_allocator_traits@V?$allocator@V?$_List_unchecked_iterator@V?$_List_val@U?$_List_simple_types@U?$pair@$$CBV?$basic_string@DU?$char_traits@D@std@@V?$allocator@D@2@@std@@V?$unique_ptr@VValue@Json@@U?$default_delete@VValue@Json@@@std@@@2@@std@@@std@@@std@@@std@@@std@@@std@@SA_KAEBV?$allocator@V?$_List_unchecked_iterator@V?$_List_val@U?$_List_simple_types@U?$pair@$$CBV?$basic_string@DU?$char_traits@D@std@@V?$allocator@D@2@@std@@V?$unique_ptr@VValue@Json@@U?$default_delete@VValue@Json@@@std@@@2@@std@@@std@@@std@@@std@@@2@@Z ; std::_Default_allocator_traits<std::allocator<std::_List_unchecked_iterator<std::_List_val<std::_List_simple_types<std::pair<std::basic_string<char,std::char_traits<char>,std::allocator<char> > const ,std::unique_ptr<Json::Value,std::default_delete<Json::Value> > > > > > > >::max_size
PUBLIC	?_Get_first@?$_Compressed_pair@V?$allocator@V?$_List_unchecked_iterator@V?$_List_val@U?$_List_simple_types@U?$pair@$$CBV?$basic_string@DU?$char_traits@D@std@@V?$allocator@D@2@@std@@V?$unique_ptr@VValue@Json@@U?$default_delete@VValue@Json@@@std@@@2@@std@@@std@@@std@@@std@@@std@@V?$_Vector_val@U?$_Simple_types@V?$_List_unchecked_iterator@V?$_List_val@U?$_List_simple_types@U?$pair@$$CBV?$basic_string@DU?$char_traits@D@std@@V?$allocator@D@2@@std@@V?$unique_ptr@VValue@Json@@U?$default_delete@VValue@Json@@@std@@@2@@std@@@std@@@std@@@std@@@std@@@2@$00@std@@QEBAAEBV?$allocator@V?$_List_unchecked_iterator@V?$_List_val@U?$_List_simple_types@U?$pair@$$CBV?$basic_string@DU?$char_traits@D@std@@V?$allocator@D@2@@std@@V?$unique_ptr@VValue@Json@@U?$default_delete@VValue@Json@@@std@@@2@@std@@@std@@@std@@@std@@@2@XZ ; std::_Compressed_pair<std::allocator<std::_List_unchecked_iterator<std::_List_val<std::_List_simple_types<std::pair<std::basic_string<char,std::char_traits<char>,std::allocator<char> > const ,std::unique_ptr<Json::Value,std::default_delete<Json::Value> > > > > > >,std::_Vector_val<std::_Simple_types<std::_List_unchecked_iterator<std::_List_val<std::_List_simple_types<std::pair<std::basic_string<char,std::char_traits<char>,std::allocator<char> > const ,std::unique_ptr<Json::Value,std::default_delete<Json::Value> > > > > > > >,1>::_Get_first
PUBLIC	??$exchange@PEAVValue@Json@@$$T@std@@YAPEAVValue@Json@@AEAPEAV12@$$QEA$$T@Z ; std::exchange<Json::Value *,std::nullptr_t>
PUBLIC	??$_Hash_array_representation@D@std@@YA_KQEBD_K@Z ; std::_Hash_array_representation<char>
PUBLIC	??$forward@PEAVValue@Json@@@std@@YA$$QEAPEAVValue@Json@@AEAPEAV12@@Z ; std::forward<Json::Value *>
PUBLIC	??$?0V?$basic_string@DU?$char_traits@D@std@@V?$allocator@D@2@@std@@V?$unique_ptr@VValue@Json@@U?$default_delete@VValue@Json@@@std@@@1@$0A@@?$pair@$$CBV?$basic_string@DU?$char_traits@D@std@@V?$allocator@D@2@@std@@V?$unique_ptr@VValue@Json@@U?$default_delete@VValue@Json@@@std@@@2@@std@@QEAA@$$QEAV?$basic_string@DU?$char_traits@D@std@@V?$allocator@D@2@@1@$$QEAV?$unique_ptr@VValue@Json@@U?$default_delete@VValue@Json@@@std@@@1@@Z ; std::pair<std::basic_string<char,std::char_traits<char>,std::allocator<char> > const ,std::unique_ptr<Json::Value,std::default_delete<Json::Value> > >::pair<std::basic_string<char,std::char_traits<char>,std::allocator<char> > const ,std::unique_ptr<Json::Value,std::default_delete<Json::Value> > ><std::basic_string<char,std::char_traits<char>,std::allocator<char> >,std::unique_ptr<Json::Value,std::default_delete<Json::Value> >,0>
PUBLIC	??$?8DU?$char_traits@D@std@@V?$allocator@D@1@@std@@YA_NAEBV?$basic_string@DU?$char_traits@D@std@@V?$allocator@D@2@@0@0@Z ; std::operator==<char,std::char_traits<char>,std::allocator<char> >
PUBLIC	?get_deleter@?$unique_ptr@VValue@Json@@U?$default_delete@VValue@Json@@@std@@@std@@QEAAAEAU?$default_delete@VValue@Json@@@2@XZ ; std::unique_ptr<Json::Value,std::default_delete<Json::Value> >::get_deleter
PUBLIC	?release@?$unique_ptr@VValue@Json@@U?$default_delete@VValue@Json@@@std@@@std@@QEAAPEAVValue@Json@@XZ ; std::unique_ptr<Json::Value,std::default_delete<Json::Value> >::release
PUBLIC	?_Get_first@?$_Compressed_pair@V?$allocator@V?$unique_ptr@VValue@Json@@U?$default_delete@VValue@Json@@@std@@@std@@@std@@V?$_Vector_val@U?$_Simple_types@V?$unique_ptr@VValue@Json@@U?$default_delete@VValue@Json@@@std@@@std@@@std@@@2@$00@std@@QEBAAEBV?$allocator@V?$unique_ptr@VValue@Json@@U?$default_delete@VValue@Json@@@std@@@std@@@2@XZ ; std::_Compressed_pair<std::allocator<std::unique_ptr<Json::Value,std::default_delete<Json::Value> > >,std::_Vector_val<std::_Simple_types<std::unique_ptr<Json::Value,std::default_delete<Json::Value> > > >,1>::_Get_first
PUBLIC	?_Do_hash@?$hash@V?$basic_string@DU?$char_traits@D@std@@V?$allocator@D@2@@std@@@std@@SA_KAEBV?$basic_string@DU?$char_traits@D@std@@V?$allocator@D@2@@2@@Z ; std::hash<std::basic_string<char,std::char_traits<char>,std::allocator<char> > >::_Do_hash
PUBLIC	??R?$equal_to@V?$basic_string@DU?$char_traits@D@std@@V?$allocator@D@2@@std@@@std@@QEBA_NAEBV?$basic_string@DU?$char_traits@D@std@@V?$allocator@D@2@@1@0@Z ; std::equal_to<std::basic_string<char,std::char_traits<char>,std::allocator<char> > >::operator()
PUBLIC	?_Unchecked_begin@?$_Hash@V?$_Umap_traits@V?$basic_string@DU?$char_traits@D@std@@V?$allocator@D@2@@std@@V?$unique_ptr@VValue@Json@@U?$default_delete@VValue@Json@@@std@@@2@V?$_Uhash_compare@V?$basic_string@DU?$char_traits@D@std@@V?$allocator@D@2@@std@@U?$hash@V?$basic_string@DU?$char_traits@D@std@@V?$allocator@D@2@@std@@@2@U?$equal_to@V?$basic_string@DU?$char_traits@D@std@@V?$allocator@D@2@@std@@@2@@2@V?$allocator@U?$pair@$$CBV?$basic_string@DU?$char_traits@D@std@@V?$allocator@D@2@@std@@V?$unique_ptr@VValue@Json@@U?$default_delete@VValue@Json@@@std@@@2@@std@@@2@$0A@@std@@@std@@QEAA?AV?$_List_unchecked_iterator@V?$_List_val@U?$_List_simple_types@U?$pair@$$CBV?$basic_string@DU?$char_traits@D@std@@V?$allocator@D@2@@std@@V?$unique_ptr@VValue@Json@@U?$default_delete@VValue@Json@@@std@@@2@@std@@@std@@@std@@@2@XZ ; std::_Hash<std::_Umap_traits<std::basic_string<char,std::char_traits<char>,std::allocator<char> >,std::unique_ptr<Json::Value,std::default_delete<Json::Value> >,std::_Uhash_compare<std::basic_string<char,std::char_traits<char>,std::allocator<char> >,std::hash<std::basic_string<char,std::char_traits<char>,std::allocator<char> > >,std::equal_to<std::basic_string<char,std::char_traits<char>,std::allocator<char> > > >,std::allocator<std::pair<std::basic_string<char,std::char_traits<char>,std::allocator<char> > const ,std::unique_ptr<Json::Value,std::default_delete<Json::Value> > > >,0> >::_Unchecked_begin
PUBLIC	?_Unchecked_end@?$_Hash@V?$_Umap_traits@V?$basic_string@DU?$char_traits@D@std@@V?$allocator@D@2@@std@@V?$unique_ptr@VValue@Json@@U?$default_delete@VValue@Json@@@std@@@2@V?$_Uhash_compare@V?$basic_string@DU?$char_traits@D@std@@V?$allocator@D@2@@std@@U?$hash@V?$basic_string@DU?$char_traits@D@std@@V?$allocator@D@2@@std@@@2@U?$equal_to@V?$basic_string@DU?$char_traits@D@std@@V?$allocator@D@2@@std@@@2@@2@V?$allocator@U?$pair@$$CBV?$basic_string@DU?$char_traits@D@std@@V?$allocator@D@2@@std@@V?$unique_ptr@VValue@Json@@U?$default_delete@VValue@Json@@@std@@@2@@std@@@2@$0A@@std@@@std@@QEAA?AV?$_List_unchecked_iterator@V?$_List_val@U?$_List_simple_types@U?$pair@$$CBV?$basic_string@DU?$char_traits@D@std@@V?$allocator@D@2@@std@@V?$unique_ptr@VValue@Json@@U?$default_delete@VValue@Json@@@std@@@2@@std@@@std@@@std@@@2@XZ ; std::_Hash<std::_Umap_traits<std::basic_string<char,std::char_traits<char>,std::allocator<char> >,std::unique_ptr<Json::Value,std::default_delete<Json::Value> >,std::_Uhash_compare<std::basic_string<char,std::char_traits<char>,std::allocator<char> >,std::hash<std::basic_string<char,std::char_traits<char>,std::allocator<char> > >,std::equal_to<std::basic_string<char,std::char_traits<char>,std::allocator<char> > > >,std::allocator<std::pair<std::basic_string<char,std::char_traits<char>,std::allocator<char> > const ,std::unique_ptr<Json::Value,std::default_delete<Json::Value> > > >,0> >::_Unchecked_end
PUBLIC	?bucket@?$_Hash@V?$_Umap_traits@V?$basic_string@DU?$char_traits@D@std@@V?$allocator@D@2@@std@@V?$unique_ptr@VValue@Json@@U?$default_delete@VValue@Json@@@std@@@2@V?$_Uhash_compare@V?$basic_string@DU?$char_traits@D@std@@V?$allocator@D@2@@std@@U?$hash@V?$basic_string@DU?$char_traits@D@std@@V?$allocator@D@2@@std@@@2@U?$equal_to@V?$basic_string@DU?$char_traits@D@std@@V?$allocator@D@2@@std@@@2@@2@V?$allocator@U?$pair@$$CBV?$basic_string@DU?$char_traits@D@std@@V?$allocator@D@2@@std@@V?$unique_ptr@VValue@Json@@U?$default_delete@VValue@Json@@@std@@@2@@std@@@2@$0A@@std@@@std@@QEBA_KAEBV?$basic_string@DU?$char_traits@D@std@@V?$allocator@D@2@@2@@Z ; std::_Hash<std::_Umap_traits<std::basic_string<char,std::char_traits<char>,std::allocator<char> >,std::unique_ptr<Json::Value,std::default_delete<Json::Value> >,std::_Uhash_compare<std::basic_string<char,std::char_traits<char>,std::allocator<char> >,std::hash<std::basic_string<char,std::char_traits<char>,std::allocator<char> > >,std::equal_to<std::basic_string<char,std::char_traits<char>,std::allocator<char> > > >,std::allocator<std::pair<std::basic_string<char,std::char_traits<char>,std::allocator<char> > const ,std::unique_ptr<Json::Value,std::default_delete<Json::Value> > > >,0> >::bucket
PUBLIC	?_Min_load_factor_buckets@?$_Hash@V?$_Umap_traits@V?$basic_string@DU?$char_traits@D@std@@V?$allocator@D@2@@std@@V?$unique_ptr@VValue@Json@@U?$default_delete@VValue@Json@@@std@@@2@V?$_Uhash_compare@V?$basic_string@DU?$char_traits@D@std@@V?$allocator@D@2@@std@@U?$hash@V?$basic_string@DU?$char_traits@D@std@@V?$allocator@D@2@@std@@@2@U?$equal_to@V?$basic_string@DU?$char_traits@D@std@@V?$allocator@D@2@@std@@@2@@2@V?$allocator@U?$pair@$$CBV?$basic_string@DU?$char_traits@D@std@@V?$allocator@D@2@@std@@V?$unique_ptr@VValue@Json@@U?$default_delete@VValue@Json@@@std@@@2@@std@@@2@$0A@@std@@@std@@IEBA_K_K@Z ; std::_Hash<std::_Umap_traits<std::basic_string<char,std::char_traits<char>,std::allocator<char> >,std::unique_ptr<Json::Value,std::default_delete<Json::Value> >,std::_Uhash_compare<std::basic_string<char,std::char_traits<char>,std::allocator<char> >,std::hash<std::basic_string<char,std::char_traits<char>,std::allocator<char> > >,std::equal_to<std::basic_string<char,std::char_traits<char>,std::allocator<char> > > >,std::allocator<std::pair<std::basic_string<char,std::char_traits<char>,std::allocator<char> > const ,std::unique_ptr<Json::Value,std::default_delete<Json::Value> > > >,0> >::_Min_load_factor_buckets
PUBLIC	?_Max_bucket_size@?$_Hash@V?$_Umap_traits@V?$basic_string@DU?$char_traits@D@std@@V?$allocator@D@2@@std@@V?$unique_ptr@VValue@Json@@U?$default_delete@VValue@Json@@@std@@@2@V?$_Uhash_compare@V?$basic_string@DU?$char_traits@D@std@@V?$allocator@D@2@@std@@U?$hash@V?$basic_string@DU?$char_traits@D@std@@V?$allocator@D@2@@std@@@2@U?$equal_to@V?$basic_string@DU?$char_traits@D@std@@V?$allocator@D@2@@std@@@2@@2@V?$allocator@U?$pair@$$CBV?$basic_string@DU?$char_traits@D@std@@V?$allocator@D@2@@std@@V?$unique_ptr@VValue@Json@@U?$default_delete@VValue@Json@@@std@@@2@@std@@@2@$0A@@std@@@std@@IEBAAEBMXZ ; std::_Hash<std::_Umap_traits<std::basic_string<char,std::char_traits<char>,std::allocator<char> >,std::unique_ptr<Json::Value,std::default_delete<Json::Value> >,std::_Uhash_compare<std::basic_string<char,std::char_traits<char>,std::allocator<char> >,std::hash<std::basic_string<char,std::char_traits<char>,std::allocator<char> > >,std::equal_to<std::basic_string<char,std::char_traits<char>,std::allocator<char> > > >,std::allocator<std::pair<std::basic_string<char,std::char_traits<char>,std::allocator<char> > const ,std::unique_ptr<Json::Value,std::default_delete<Json::Value> > > >,0> >::_Max_bucket_size
PUBLIC	?_Get_first@?$_Compressed_pair@U?$equal_to@V?$basic_string@DU?$char_traits@D@std@@V?$allocator@D@2@@std@@@std@@M$00@std@@QEBAAEBU?$equal_to@V?$basic_string@DU?$char_traits@D@std@@V?$allocator@D@2@@std@@@2@XZ ; std::_Compressed_pair<std::equal_to<std::basic_string<char,std::char_traits<char>,std::allocator<char> > >,float,1>::_Get_first
PUBLIC	?_Getal@?$list@U?$pair@$$CBV?$basic_string@DU?$char_traits@D@std@@V?$allocator@D@2@@std@@V?$unique_ptr@VValue@Json@@U?$default_delete@VValue@Json@@@std@@@2@@std@@V?$allocator@U?$pair@$$CBV?$basic_string@DU?$char_traits@D@std@@V?$allocator@D@2@@std@@V?$unique_ptr@VValue@Json@@U?$default_delete@VValue@Json@@@std@@@2@@std@@@2@@std@@AEBAAEBV?$allocator@U?$_List_node@U?$pair@$$CBV?$basic_string@DU?$char_traits@D@std@@V?$allocator@D@2@@std@@V?$unique_ptr@VValue@Json@@U?$default_delete@VValue@Json@@@std@@@2@@std@@PEAX@std@@@2@XZ ; std::list<std::pair<std::basic_string<char,std::char_traits<char>,std::allocator<char> > const ,std::unique_ptr<Json::Value,std::default_delete<Json::Value> > >,std::allocator<std::pair<std::basic_string<char,std::char_traits<char>,std::allocator<char> > const ,std::unique_ptr<Json::Value,std::default_delete<Json::Value> > > > >::_Getal
PUBLIC	?max_size@?$_Default_allocator_traits@V?$allocator@U?$_List_node@U?$pair@$$CBV?$basic_string@DU?$char_traits@D@std@@V?$allocator@D@2@@std@@V?$unique_ptr@VValue@Json@@U?$default_delete@VValue@Json@@@std@@@2@@std@@PEAX@std@@@std@@@std@@SA_KAEBV?$allocator@U?$_List_node@U?$pair@$$CBV?$basic_string@DU?$char_traits@D@std@@V?$allocator@D@2@@std@@V?$unique_ptr@VValue@Json@@U?$default_delete@VValue@Json@@@std@@@2@@std@@PEAX@std@@@2@@Z ; std::_Default_allocator_traits<std::allocator<std::_List_node<std::pair<std::basic_string<char,std::char_traits<char>,std::allocator<char> > const ,std::unique_ptr<Json::Value,std::default_delete<Json::Value> > >,void *> > >::max_size
PUBLIC	?_Unchecked_splice@?$_List_val@U?$_List_simple_types@U?$pair@$$CBV?$basic_string@DU?$char_traits@D@std@@V?$allocator@D@2@@std@@V?$unique_ptr@VValue@Json@@U?$default_delete@VValue@Json@@@std@@@2@@std@@@std@@@std@@SAPEAU?$_List_node@U?$pair@$$CBV?$basic_string@DU?$char_traits@D@std@@V?$allocator@D@2@@std@@V?$unique_ptr@VValue@Json@@U?$default_delete@VValue@Json@@@std@@@2@@std@@PEAX@2@QEAU32@00@Z ; std::_List_val<std::_List_simple_types<std::pair<std::basic_string<char,std::char_traits<char>,std::allocator<char> > const ,std::unique_ptr<Json::Value,std::default_delete<Json::Value> > > > >::_Unchecked_splice
PUBLIC	??D?$_List_unchecked_iterator@V?$_List_val@U?$_List_simple_types@U?$pair@$$CBV?$basic_string@DU?$char_traits@D@std@@V?$allocator@D@2@@std@@V?$unique_ptr@VValue@Json@@U?$default_delete@VValue@Json@@@std@@@2@@std@@@std@@@std@@@std@@QEBAAEAU?$pair@$$CBV?$basic_string@DU?$char_traits@D@std@@V?$allocator@D@2@@std@@V?$unique_ptr@VValue@Json@@U?$default_delete@VValue@Json@@@std@@@2@@1@XZ ; std::_List_unchecked_iterator<std::_List_val<std::_List_simple_types<std::pair<std::basic_string<char,std::char_traits<char>,std::allocator<char> > const ,std::unique_ptr<Json::Value,std::default_delete<Json::Value> > > > > >::operator*
PUBLIC	??E?$_List_unchecked_iterator@V?$_List_val@U?$_List_simple_types@U?$pair@$$CBV?$basic_string@DU?$char_traits@D@std@@V?$allocator@D@2@@std@@V?$unique_ptr@VValue@Json@@U?$default_delete@VValue@Json@@@std@@@2@@std@@@std@@@std@@@std@@QEAAAEAV01@XZ ; std::_List_unchecked_iterator<std::_List_val<std::_List_simple_types<std::pair<std::basic_string<char,std::char_traits<char>,std::allocator<char> > const ,std::unique_ptr<Json::Value,std::default_delete<Json::Value> > > > > >::operator++
PUBLIC	??D?$_List_unchecked_const_iterator@V?$_List_val@U?$_List_simple_types@U?$pair@$$CBV?$basic_string@DU?$char_traits@D@std@@V?$allocator@D@2@@std@@V?$unique_ptr@VValue@Json@@U?$default_delete@VValue@Json@@@std@@@2@@std@@@std@@@std@@U_Iterator_base0@2@@std@@QEBAAEBU?$pair@$$CBV?$basic_string@DU?$char_traits@D@std@@V?$allocator@D@2@@std@@V?$unique_ptr@VValue@Json@@U?$default_delete@VValue@Json@@@std@@@2@@1@XZ ; std::_List_unchecked_const_iterator<std::_List_val<std::_List_simple_types<std::pair<std::basic_string<char,std::char_traits<char>,std::allocator<char> > const ,std::unique_ptr<Json::Value,std::default_delete<Json::Value> > > > >,std::_Iterator_base0>::operator*
PUBLIC	??E?$_List_unchecked_const_iterator@V?$_List_val@U?$_List_simple_types@U?$pair@$$CBV?$basic_string@DU?$char_traits@D@std@@V?$allocator@D@2@@std@@V?$unique_ptr@VValue@Json@@U?$default_delete@VValue@Json@@@std@@@2@@std@@@std@@@std@@U_Iterator_base0@2@@std@@QEAAAEAV01@XZ ; std::_List_unchecked_const_iterator<std::_List_val<std::_List_simple_types<std::pair<std::basic_string<char,std::char_traits<char>,std::allocator<char> > const ,std::unique_ptr<Json::Value,std::default_delete<Json::Value> > > > >,std::_Iterator_base0>::operator++
PUBLIC	??F?$_List_unchecked_const_iterator@V?$_List_val@U?$_List_simple_types@U?$pair@$$CBV?$basic_string@DU?$char_traits@D@std@@V?$allocator@D@2@@std@@V?$unique_ptr@VValue@Json@@U?$default_delete@VValue@Json@@@std@@@2@@std@@@std@@@std@@U_Iterator_base0@2@@std@@QEAAAEAV01@XZ ; std::_List_unchecked_const_iterator<std::_List_val<std::_List_simple_types<std::pair<std::basic_string<char,std::char_traits<char>,std::allocator<char> > const ,std::unique_ptr<Json::Value,std::default_delete<Json::Value> > > > >,std::_Iterator_base0>::operator--
PUBLIC	??8?$_List_unchecked_const_iterator@V?$_List_val@U?$_List_simple_types@U?$pair@$$CBV?$basic_string@DU?$char_traits@D@std@@V?$allocator@D@2@@std@@V?$unique_ptr@VValue@Json@@U?$default_delete@VValue@Json@@@std@@@2@@std@@@std@@@std@@U_Iterator_base0@2@@std@@QEBA_NAEBV01@@Z ; std::_List_unchecked_const_iterator<std::_List_val<std::_List_simple_types<std::pair<std::basic_string<char,std::char_traits<char>,std::allocator<char> > const ,std::unique_ptr<Json::Value,std::default_delete<Json::Value> > > > >,std::_Iterator_base0>::operator==
PUBLIC	??0_Clear_guard@?$_Hash@V?$_Umap_traits@V?$basic_string@DU?$char_traits@D@std@@V?$allocator@D@2@@std@@V?$unique_ptr@VValue@Json@@U?$default_delete@VValue@Json@@@std@@@2@V?$_Uhash_compare@V?$basic_string@DU?$char_traits@D@std@@V?$allocator@D@2@@std@@U?$hash@V?$basic_string@DU?$char_traits@D@std@@V?$allocator@D@2@@std@@@2@U?$equal_to@V?$basic_string@DU?$char_traits@D@std@@V?$allocator@D@2@@std@@@2@@2@V?$allocator@U?$pair@$$CBV?$basic_string@DU?$char_traits@D@std@@V?$allocator@D@2@@std@@V?$unique_ptr@VValue@Json@@U?$default_delete@VValue@Json@@@std@@@2@@std@@@2@$0A@@std@@@std@@QEAA@QEAV12@@Z ; std::_Hash<std::_Umap_traits<std::basic_string<char,std::char_traits<char>,std::allocator<char> >,std::unique_ptr<Json::Value,std::default_delete<Json::Value> >,std::_Uhash_compare<std::basic_string<char,std::char_traits<char>,std::allocator<char> >,std::hash<std::basic_string<char,std::char_traits<char>,std::allocator<char> > >,std::equal_to<std::basic_string<char,std::char_traits<char>,std::allocator<char> > > >,std::allocator<std::pair<std::basic_string<char,std::char_traits<char>,std::allocator<char> > const ,std::unique_ptr<Json::Value,std::default_delete<Json::Value> > > >,0> >::_Clear_guard::_Clear_guard
PUBLIC	??1_Clear_guard@?$_Hash@V?$_Umap_traits@V?$basic_string@DU?$char_traits@D@std@@V?$allocator@D@2@@std@@V?$unique_ptr@VValue@Json@@U?$default_delete@VValue@Json@@@std@@@2@V?$_Uhash_compare@V?$basic_string@DU?$char_traits@D@std@@V?$allocator@D@2@@std@@U?$hash@V?$basic_string@DU?$char_traits@D@std@@V?$allocator@D@2@@std@@@2@U?$equal_to@V?$basic_string@DU?$char_traits@D@std@@V?$allocator@D@2@@std@@@2@@2@V?$allocator@U?$pair@$$CBV?$basic_string@DU?$char_traits@D@std@@V?$allocator@D@2@@std@@V?$unique_ptr@VValue@Json@@U?$default_delete@VValue@Json@@@std@@@2@@std@@@2@$0A@@std@@@std@@QEAA@XZ ; std::_Hash<std::_Umap_traits<std::basic_string<char,std::char_traits<char>,std::allocator<char> >,std::unique_ptr<Json::Value,std::default_delete<Json::Value> >,std::_Uhash_compare<std::basic_string<char,std::char_traits<char>,std::allocator<char> >,std::hash<std::basic_string<char,std::char_traits<char>,std::allocator<char> > >,std::equal_to<std::basic_string<char,std::char_traits<char>,std::allocator<char> > > >,std::allocator<std::pair<std::basic_string<char,std::char_traits<char>,std::allocator<char> > const ,std::unique_ptr<Json::Value,std::default_delete<Json::Value> > > >,0> >::_Clear_guard::~_Clear_guard
PUBLIC	?max_size@?$_Hash_vec@V?$allocator@V?$_List_unchecked_iterator@V?$_List_val@U?$_List_simple_types@U?$pair@$$CBV?$basic_string@DU?$char_traits@D@std@@V?$allocator@D@2@@std@@V?$unique_ptr@VValue@Json@@U?$default_delete@VValue@Json@@@std@@@2@@std@@@std@@@std@@@std@@@std@@@std@@QEBA_KXZ ; std::_Hash_vec<std::allocator<std::_List_unchecked_iterator<std::_List_val<std::_List_simple_types<std::pair<std::basic_string<char,std::char_traits<char>,std::allocator<char> > const ,std::unique_ptr<Json::Value,std::default_delete<Json::Value> > > > > > > >::max_size
PUBLIC	??$_Reallocate_grow_by@V<lambda_1>@?1??insert@?$basic_string@DU?$char_traits@D@std@@V?$allocator@D@2@@std@@QEAAAEAV34@_KQEBD0@Z@_KPEBD_K@?$basic_string@DU?$char_traits@D@std@@V?$allocator@D@2@@std@@AEAAAEAV01@_KV<lambda_1>@?1??insert@01@QEAAAEAV01@0QEBD0@Z@_KPEBD3@Z ; std::basic_string<char,std::char_traits<char>,std::allocator<char> >::_Reallocate_grow_by<`std::basic_string<char,std::char_traits<char>,std::allocator<char> >::insert'::`2'::<lambda_1>,unsigned __int64,char const *,unsigned __int64>
PUBLIC	??$construct_at@PEAU?$_List_node@U?$pair@$$CBV?$basic_string@DU?$char_traits@D@std@@V?$allocator@D@2@@std@@V?$unique_ptr@VValue@Json@@U?$default_delete@VValue@Json@@@std@@@2@@std@@PEAX@std@@AEBQEAU12@@std@@YAPEAPEAU?$_List_node@U?$pair@$$CBV?$basic_string@DU?$char_traits@D@std@@V?$allocator@D@2@@std@@V?$unique_ptr@VValue@Json@@U?$default_delete@VValue@Json@@@std@@@2@@std@@PEAX@0@QEAPEAU10@AEBQEAU10@@Z ; std::construct_at<std::_List_node<std::pair<std::basic_string<char,std::char_traits<char>,std::allocator<char> > const ,std::unique_ptr<Json::Value,std::default_delete<Json::Value> > >,void *> *,std::_List_node<std::pair<std::basic_string<char,std::char_traits<char>,std::allocator<char> > const ,std::unique_ptr<Json::Value,std::default_delete<Json::Value> > >,void *> * const &>
PUBLIC	??$forward@AEBQEAU?$_List_node@U?$pair@$$CBV?$basic_string@DU?$char_traits@D@std@@V?$allocator@D@2@@std@@V?$unique_ptr@VValue@Json@@U?$default_delete@VValue@Json@@@std@@@2@@std@@PEAX@std@@@std@@YAAEBQEAU?$_List_node@U?$pair@$$CBV?$basic_string@DU?$char_traits@D@std@@V?$allocator@D@2@@std@@V?$unique_ptr@VValue@Json@@U?$default_delete@VValue@Json@@@std@@@2@@std@@PEAX@0@AEBQEAU10@@Z ; std::forward<std::_List_node<std::pair<std::basic_string<char,std::char_traits<char>,std::allocator<char> > const ,std::unique_ptr<Json::Value,std::default_delete<Json::Value> > >,void *> * const &>
PUBLIC	??$construct_at@V?$_List_unchecked_iterator@V?$_List_val@U?$_List_simple_types@U?$pair@$$CBV?$basic_string@DU?$char_traits@D@std@@V?$allocator@D@2@@std@@V?$unique_ptr@VValue@Json@@U?$default_delete@VValue@Json@@@std@@@2@@std@@@std@@@std@@@std@@AEBV12@@std@@YAPEAV?$_List_unchecked_iterator@V?$_List_val@U?$_List_simple_types@U?$pair@$$CBV?$basic_string@DU?$char_traits@D@std@@V?$allocator@D@2@@std@@V?$unique_ptr@VValue@Json@@U?$default_delete@VValue@Json@@@std@@@2@@std@@@std@@@std@@@0@QEAV10@AEBV10@@Z ; std::construct_at<std::_List_unchecked_iterator<std::_List_val<std::_List_simple_types<std::pair<std::basic_string<char,std::char_traits<char>,std::allocator<char> > const ,std::unique_ptr<Json::Value,std::default_delete<Json::Value> > > > > >,std::_List_unchecked_iterator<std::_List_val<std::_List_simple_types<std::pair<std::basic_string<char,std::char_traits<char>,std::allocator<char> > const ,std::unique_ptr<Json::Value,std::default_delete<Json::Value> > > > > > const &>
PUBLIC	??$addressof@V?$_List_unchecked_iterator@V?$_List_val@U?$_List_simple_types@U?$pair@$$CBV?$basic_string@DU?$char_traits@D@std@@V?$allocator@D@2@@std@@V?$unique_ptr@VValue@Json@@U?$default_delete@VValue@Json@@@std@@@2@@std@@@std@@@std@@@std@@@std@@YAPEAV?$_List_unchecked_iterator@V?$_List_val@U?$_List_simple_types@U?$pair@$$CBV?$basic_string@DU?$char_traits@D@std@@V?$allocator@D@2@@std@@V?$unique_ptr@VValue@Json@@U?$default_delete@VValue@Json@@@std@@@2@@std@@@std@@@std@@@0@AEAV10@@Z ; std::addressof<std::_List_unchecked_iterator<std::_List_val<std::_List_simple_types<std::pair<std::basic_string<char,std::char_traits<char>,std::allocator<char> > const ,std::unique_ptr<Json::Value,std::default_delete<Json::Value> > > > > > >
PUBLIC	??$forward@AEAPEAVNumber@Json@@@std@@YAAEAPEAVNumber@Json@@AEAPEAV12@@Z ; std::forward<Json::Number * &>
PUBLIC	??$forward@AEAPEAVNull@Json@@@std@@YAAEAPEAVNull@Json@@AEAPEAV12@@Z ; std::forward<Json::Null * &>
PUBLIC	??$forward@AEAPEAVBool@Json@@@std@@YAAEAPEAVBool@Json@@AEAPEAV12@@Z ; std::forward<Json::Bool * &>
PUBLIC	??$forward@AEAPEAVArray@Json@@@std@@YAAEAPEAVArray@Json@@AEAPEAV12@@Z ; std::forward<Json::Array * &>
PUBLIC	??$construct_at@U?$pair@$$CBV?$basic_string@DU?$char_traits@D@std@@V?$allocator@D@2@@std@@V?$unique_ptr@VValue@Json@@U?$default_delete@VValue@Json@@@std@@@2@@std@@V?$basic_string@DU?$char_traits@D@std@@V?$allocator@D@2@@2@V?$unique_ptr@VValue@Json@@U?$default_delete@VValue@Json@@@std@@@2@@std@@YAPEAU?$pair@$$CBV?$basic_string@DU?$char_traits@D@std@@V?$allocator@D@2@@std@@V?$unique_ptr@VValue@Json@@U?$default_delete@VValue@Json@@@std@@@2@@0@QEAU10@$$QEAV?$basic_string@DU?$char_traits@D@std@@V?$allocator@D@2@@0@$$QEAV?$unique_ptr@VValue@Json@@U?$default_delete@VValue@Json@@@std@@@0@@Z ; std::construct_at<std::pair<std::basic_string<char,std::char_traits<char>,std::allocator<char> > const ,std::unique_ptr<Json::Value,std::default_delete<Json::Value> > >,std::basic_string<char,std::char_traits<char>,std::allocator<char> >,std::unique_ptr<Json::Value,std::default_delete<Json::Value> > >
PUBLIC	??$forward@AEAPEAVObject@Json@@@std@@YAAEAPEAVObject@Json@@AEAPEAV12@@Z ; std::forward<Json::Object * &>
PUBLIC	??$?0U?$default_delete@VValue@Json@@@std@@PEAVValue@Json@@@?$_Compressed_pair@U?$default_delete@VValue@Json@@@std@@PEAVValue@Json@@$00@std@@QEAA@U_One_then_variadic_args_t@1@$$QEAU?$default_delete@VValue@Json@@@1@$$QEAPEAVValue@Json@@@Z ; std::_Compressed_pair<std::default_delete<Json::Value>,Json::Value *,1>::_Compressed_pair<std::default_delete<Json::Value>,Json::Value *,1><std::default_delete<Json::Value>,Json::Value *>
PUBLIC	??$forward@U?$default_delete@VValue@Json@@@std@@@std@@YA$$QEAU?$default_delete@VValue@Json@@@0@AEAU10@@Z ; std::forward<std::default_delete<Json::Value> >
PUBLIC	?__autoclassinit2@?$_List_unchecked_const_iterator@V?$_List_val@U?$_List_simple_types@U?$pair@$$CBV?$basic_string@DU?$char_traits@D@std@@V?$allocator@D@2@@std@@V?$unique_ptr@VValue@Json@@U?$default_delete@VValue@Json@@@std@@@2@@std@@@std@@@std@@U_Iterator_base0@2@@std@@QEAAX_K@Z ; std::_List_unchecked_const_iterator<std::_List_val<std::_List_simple_types<std::pair<std::basic_string<char,std::char_traits<char>,std::allocator<char> > const ,std::unique_ptr<Json::Value,std::default_delete<Json::Value> > > > >,std::_Iterator_base0>::__autoclassinit2
PUBLIC	?__autoclassinit2@?$_List_unchecked_iterator@V?$_List_val@U?$_List_simple_types@U?$pair@$$CBV?$basic_string@DU?$char_traits@D@std@@V?$allocator@D@2@@std@@V?$unique_ptr@VValue@Json@@U?$default_delete@VValue@Json@@@std@@@2@@std@@@std@@@std@@@std@@QEAAX_K@Z ; std::_List_unchecked_iterator<std::_List_val<std::_List_simple_types<std::pair<std::basic_string<char,std::char_traits<char>,std::allocator<char> > const ,std::unique_ptr<Json::Value,std::default_delete<Json::Value> > > > > >::__autoclassinit2
PUBLIC	??_G?$pair@$$CBV?$basic_string@DU?$char_traits@D@std@@V?$allocator@D@2@@std@@V?$unique_ptr@VValue@Json@@U?$default_delete@VValue@Json@@@std@@@2@@std@@QEAAPEAXI@Z ; std::pair<std::basic_string<char,std::char_traits<char>,std::allocator<char> > const ,std::unique_ptr<Json::Value,std::default_delete<Json::Value> > >::`scalar deleting destructor'
PUBLIC	??R<lambda_1>@?1??insert@?$basic_string@DU?$char_traits@D@std@@V?$allocator@D@2@@std@@QEAAAEAV23@_KQEBD0@Z@QEBA@QEAD10010@Z ; `std::basic_string<char,std::char_traits<char>,std::allocator<char> >::insert'::`2'::<lambda_1>::operator()
PUBLIC	?insert@?$basic_string@DU?$char_traits@D@std@@V?$allocator@D@2@@std@@QEAAAEAV12@_KQEBD0@Z ; std::basic_string<char,std::char_traits<char>,std::allocator<char> >::insert
PUBLIC	?allocate@?$allocator@V?$unique_ptr@VValue@Json@@U?$default_delete@VValue@Json@@@std@@@std@@@std@@QEAAPEAV?$unique_ptr@VValue@Json@@U?$default_delete@VValue@Json@@@std@@@2@_K@Z ; std::allocator<std::unique_ptr<Json::Value,std::default_delete<Json::Value> > >::allocate
PUBLIC	?capacity@?$vector@V?$unique_ptr@VValue@Json@@U?$default_delete@VValue@Json@@@std@@@std@@V?$allocator@V?$unique_ptr@VValue@Json@@U?$default_delete@VValue@Json@@@std@@@std@@@2@@std@@QEBA_KXZ ; std::vector<std::unique_ptr<Json::Value,std::default_delete<Json::Value> >,std::allocator<std::unique_ptr<Json::Value,std::default_delete<Json::Value> > > >::capacity
PUBLIC	?_Getal@?$vector@V?$unique_ptr@VValue@Json@@U?$default_delete@VValue@Json@@@std@@@std@@V?$allocator@V?$unique_ptr@VValue@Json@@U?$default_delete@VValue@Json@@@std@@@std@@@2@@std@@AEBAAEBV?$allocator@V?$unique_ptr@VValue@Json@@U?$default_delete@VValue@Json@@@std@@@std@@@2@XZ ; std::vector<std::unique_ptr<Json::Value,std::default_delete<Json::Value> >,std::allocator<std::unique_ptr<Json::Value,std::default_delete<Json::Value> > > >::_Getal
PUBLIC	?max_size@?$_Default_allocator_traits@V?$allocator@V?$unique_ptr@VValue@Json@@U?$default_delete@VValue@Json@@@std@@@std@@@std@@@std@@SA_KAEBV?$allocator@V?$unique_ptr@VValue@Json@@U?$default_delete@VValue@Json@@@std@@@std@@@2@@Z ; std::_Default_allocator_traits<std::allocator<std::unique_ptr<Json::Value,std::default_delete<Json::Value> > > >::max_size
PUBLIC	?bucket_count@?$_Hash@V?$_Umap_traits@V?$basic_string@DU?$char_traits@D@std@@V?$allocator@D@2@@std@@V?$unique_ptr@VValue@Json@@U?$default_delete@VValue@Json@@@std@@@2@V?$_Uhash_compare@V?$basic_string@DU?$char_traits@D@std@@V?$allocator@D@2@@std@@U?$hash@V?$basic_string@DU?$char_traits@D@std@@V?$allocator@D@2@@std@@@2@U?$equal_to@V?$basic_string@DU?$char_traits@D@std@@V?$allocator@D@2@@std@@@2@@2@V?$allocator@U?$pair@$$CBV?$basic_string@DU?$char_traits@D@std@@V?$allocator@D@2@@std@@V?$unique_ptr@VValue@Json@@U?$default_delete@VValue@Json@@@std@@@2@@std@@@2@$0A@@std@@@std@@QEBA_KXZ ; std::_Hash<std::_Umap_traits<std::basic_string<char,std::char_traits<char>,std::allocator<char> >,std::unique_ptr<Json::Value,std::default_delete<Json::Value> >,std::_Uhash_compare<std::basic_string<char,std::char_traits<char>,std::allocator<char> >,std::hash<std::basic_string<char,std::char_traits<char>,std::allocator<char> > >,std::equal_to<std::basic_string<char,std::char_traits<char>,std::allocator<char> > > >,std::allocator<std::pair<std::basic_string<char,std::char_traits<char>,std::allocator<char> > const ,std::unique_ptr<Json::Value,std::default_delete<Json::Value> > > >,0> >::bucket_count
PUBLIC	?max_load_factor@?$_Hash@V?$_Umap_traits@V?$basic_string@DU?$char_traits@D@std@@V?$allocator@D@2@@std@@V?$unique_ptr@VValue@Json@@U?$default_delete@VValue@Json@@@std@@@2@V?$_Uhash_compare@V?$basic_string@DU?$char_traits@D@std@@V?$allocator@D@2@@std@@U?$hash@V?$basic_string@DU?$char_traits@D@std@@V?$allocator@D@2@@std@@@2@U?$equal_to@V?$basic_string@DU?$char_traits@D@std@@V?$allocator@D@2@@std@@@2@@2@V?$allocator@U?$pair@$$CBV?$basic_string@DU?$char_traits@D@std@@V?$allocator@D@2@@std@@V?$unique_ptr@VValue@Json@@U?$default_delete@VValue@Json@@@std@@@2@@std@@@2@$0A@@std@@@std@@QEBAMXZ ; std::_Hash<std::_Umap_traits<std::basic_string<char,std::char_traits<char>,std::allocator<char> >,std::unique_ptr<Json::Value,std::default_delete<Json::Value> >,std::_Uhash_compare<std::basic_string<char,std::char_traits<char>,std::allocator<char> >,std::hash<std::basic_string<char,std::char_traits<char>,std::allocator<char> > >,std::equal_to<std::basic_string<char,std::char_traits<char>,std::allocator<char> > > >,std::allocator<std::pair<std::basic_string<char,std::char_traits<char>,std::allocator<char> > const ,std::unique_ptr<Json::Value,std::default_delete<Json::Value> > > >,0> >::max_load_factor
PUBLIC	?_Desired_grow_bucket_count@?$_Hash@V?$_Umap_traits@V?$basic_string@DU?$char_traits@D@std@@V?$allocator@D@2@@std@@V?$unique_ptr@VValue@Json@@U?$default_delete@VValue@Json@@@std@@@2@V?$_Uhash_compare@V?$basic_string@DU?$char_traits@D@std@@V?$allocator@D@2@@std@@U?$hash@V?$basic_string@DU?$char_traits@D@std@@V?$allocator@D@2@@std@@@2@U?$equal_to@V?$basic_string@DU?$char_traits@D@std@@V?$allocator@D@2@@std@@@2@@2@V?$allocator@U?$pair@$$CBV?$basic_string@DU?$char_traits@D@std@@V?$allocator@D@2@@std@@V?$unique_ptr@VValue@Json@@U?$default_delete@VValue@Json@@@std@@@2@@std@@@2@$0A@@std@@@std@@IEBA_K_K@Z ; std::_Hash<std::_Umap_traits<std::basic_string<char,std::char_traits<char>,std::allocator<char> >,std::unique_ptr<Json::Value,std::default_delete<Json::Value> >,std::_Uhash_compare<std::basic_string<char,std::char_traits<char>,std::allocator<char> >,std::hash<std::basic_string<char,std::char_traits<char>,std::allocator<char> > >,std::equal_to<std::basic_string<char,std::char_traits<char>,std::allocator<char> > > >,std::allocator<std::pair<std::basic_string<char,std::char_traits<char>,std::allocator<char> > const ,std::unique_ptr<Json::Value,std::default_delete<Json::Value> > > >,0> >::_Desired_grow_bucket_count
PUBLIC	?_Forced_rehash@?$_Hash@V?$_Umap_traits@V?$basic_string@DU?$char_traits@D@std@@V?$allocator@D@2@@std@@V?$unique_ptr@VValue@Json@@U?$default_delete@VValue@Json@@@std@@@2@V?$_Uhash_compare@V?$basic_string@DU?$char_traits@D@std@@V?$allocator@D@2@@std@@U?$hash@V?$basic_string@DU?$char_traits@D@std@@V?$allocator@D@2@@std@@@2@U?$equal_to@V?$basic_string@DU?$char_traits@D@std@@V?$allocator@D@2@@std@@@2@@2@V?$allocator@U?$pair@$$CBV?$basic_string@DU?$char_traits@D@std@@V?$allocator@D@2@@std@@V?$unique_ptr@VValue@Json@@U?$default_delete@VValue@Json@@@std@@@2@@std@@@2@$0A@@std@@@std@@IEAAX_K@Z ; std::_Hash<std::_Umap_traits<std::basic_string<char,std::char_traits<char>,std::allocator<char> >,std::unique_ptr<Json::Value,std::default_delete<Json::Value> >,std::_Uhash_compare<std::basic_string<char,std::char_traits<char>,std::allocator<char> >,std::hash<std::basic_string<char,std::char_traits<char>,std::allocator<char> > >,std::equal_to<std::basic_string<char,std::char_traits<char>,std::allocator<char> > > >,std::allocator<std::pair<std::basic_string<char,std::char_traits<char>,std::allocator<char> > const ,std::unique_ptr<Json::Value,std::default_delete<Json::Value> > > >,0> >::_Forced_rehash
PUBLIC	??R?$_Conditionally_enabled_hash@V?$basic_string@DU?$char_traits@D@std@@V?$allocator@D@2@@std@@$00@std@@SA_KAEBV?$basic_string@DU?$char_traits@D@std@@V?$allocator@D@2@@1@@Z ; std::_Conditionally_enabled_hash<std::basic_string<char,std::char_traits<char>,std::allocator<char> >,1>::operator()
PUBLIC	?_Get_first@?$_Compressed_pair@U?$hash@V?$basic_string@DU?$char_traits@D@std@@V?$allocator@D@2@@std@@@std@@V?$_Compressed_pair@U?$equal_to@V?$basic_string@DU?$char_traits@D@std@@V?$allocator@D@2@@std@@@std@@M$00@2@$00@std@@QEBAAEBU?$hash@V?$basic_string@DU?$char_traits@D@std@@V?$allocator@D@2@@std@@@2@XZ ; std::_Compressed_pair<std::hash<std::basic_string<char,std::char_traits<char>,std::allocator<char> > >,std::_Compressed_pair<std::equal_to<std::basic_string<char,std::char_traits<char>,std::allocator<char> > >,float,1>,1>::_Get_first
PUBLIC	?max_size@?$list@U?$pair@$$CBV?$basic_string@DU?$char_traits@D@std@@V?$allocator@D@2@@std@@V?$unique_ptr@VValue@Json@@U?$default_delete@VValue@Json@@@std@@@2@@std@@V?$allocator@U?$pair@$$CBV?$basic_string@DU?$char_traits@D@std@@V?$allocator@D@2@@std@@V?$unique_ptr@VValue@Json@@U?$default_delete@VValue@Json@@@std@@@2@@std@@@2@@std@@QEBA_KXZ ; std::list<std::pair<std::basic_string<char,std::char_traits<char>,std::allocator<char> > const ,std::unique_ptr<Json::Value,std::default_delete<Json::Value> > >,std::allocator<std::pair<std::basic_string<char,std::char_traits<char>,std::allocator<char> > const ,std::unique_ptr<Json::Value,std::default_delete<Json::Value> > > > >::max_size
PUBLIC	??0?$_Alloc_construct_ptr@V?$allocator@U?$_List_node@U?$pair@$$CBV?$basic_string@DU?$char_traits@D@std@@V?$allocator@D@2@@std@@V?$unique_ptr@VValue@Json@@U?$default_delete@VValue@Json@@@std@@@2@@std@@PEAX@std@@@std@@@std@@QEAA@AEAV?$allocator@U?$_List_node@U?$pair@$$CBV?$basic_string@DU?$char_traits@D@std@@V?$allocator@D@2@@std@@V?$unique_ptr@VValue@Json@@U?$default_delete@VValue@Json@@@std@@@2@@std@@PEAX@std@@@1@@Z ; std::_Alloc_construct_ptr<std::allocator<std::_List_node<std::pair<std::basic_string<char,std::char_traits<char>,std::allocator<char> > const ,std::unique_ptr<Json::Value,std::default_delete<Json::Value> > >,void *> > >::_Alloc_construct_ptr<std::allocator<std::_List_node<std::pair<std::basic_string<char,std::char_traits<char>,std::allocator<char> > const ,std::unique_ptr<Json::Value,std::default_delete<Json::Value> > >,void *> > >
PUBLIC	?_Allocate@?$_Alloc_construct_ptr@V?$allocator@U?$_List_node@U?$pair@$$CBV?$basic_string@DU?$char_traits@D@std@@V?$allocator@D@2@@std@@V?$unique_ptr@VValue@Json@@U?$default_delete@VValue@Json@@@std@@@2@@std@@PEAX@std@@@std@@@std@@QEAAXXZ ; std::_Alloc_construct_ptr<std::allocator<std::_List_node<std::pair<std::basic_string<char,std::char_traits<char>,std::allocator<char> > const ,std::unique_ptr<Json::Value,std::default_delete<Json::Value> > >,void *> > >::_Allocate
PUBLIC	??1?$_Alloc_construct_ptr@V?$allocator@U?$_List_node@U?$pair@$$CBV?$basic_string@DU?$char_traits@D@std@@V?$allocator@D@2@@std@@V?$unique_ptr@VValue@Json@@U?$default_delete@VValue@Json@@@std@@@2@@std@@PEAX@std@@@std@@@std@@QEAA@XZ ; std::_Alloc_construct_ptr<std::allocator<std::_List_node<std::pair<std::basic_string<char,std::char_traits<char>,std::allocator<char> > const ,std::unique_ptr<Json::Value,std::default_delete<Json::Value> > >,void *> > >::~_Alloc_construct_ptr<std::allocator<std::_List_node<std::pair<std::basic_string<char,std::char_traits<char>,std::allocator<char> > const ,std::unique_ptr<Json::Value,std::default_delete<Json::Value> > >,void *> > >
PUBLIC	??0?$_Uninitialized_backout_al@V?$allocator@V?$unique_ptr@VValue@Json@@U?$default_delete@VValue@Json@@@std@@@std@@@std@@@std@@QEAA@PEAV?$unique_ptr@VValue@Json@@U?$default_delete@VValue@Json@@@std@@@1@AEAV?$allocator@V?$unique_ptr@VValue@Json@@U?$default_delete@VValue@Json@@@std@@@std@@@1@@Z ; std::_Uninitialized_backout_al<std::allocator<std::unique_ptr<Json::Value,std::default_delete<Json::Value> > > >::_Uninitialized_backout_al<std::allocator<std::unique_ptr<Json::Value,std::default_delete<Json::Value> > > >
PUBLIC	??1?$_Uninitialized_backout_al@V?$allocator@V?$unique_ptr@VValue@Json@@U?$default_delete@VValue@Json@@@std@@@std@@@std@@@std@@QEAA@XZ ; std::_Uninitialized_backout_al<std::allocator<std::unique_ptr<Json::Value,std::default_delete<Json::Value> > > >::~_Uninitialized_backout_al<std::allocator<std::unique_ptr<Json::Value,std::default_delete<Json::Value> > > >
PUBLIC	?_Release@?$_Uninitialized_backout_al@V?$allocator@V?$unique_ptr@VValue@Json@@U?$default_delete@VValue@Json@@@std@@@std@@@std@@@std@@QEAAPEAV?$unique_ptr@VValue@Json@@U?$default_delete@VValue@Json@@@std@@@2@XZ ; std::_Uninitialized_backout_al<std::allocator<std::unique_ptr<Json::Value,std::default_delete<Json::Value> > > >::_Release
PUBLIC	??$_Construct_in_place@PEAU?$_List_node@U?$pair@$$CBV?$basic_string@DU?$char_traits@D@std@@V?$allocator@D@2@@std@@V?$unique_ptr@VValue@Json@@U?$default_delete@VValue@Json@@@std@@@2@@std@@PEAX@std@@AEBQEAU12@@std@@YAXAEAPEAU?$_List_node@U?$pair@$$CBV?$basic_string@DU?$char_traits@D@std@@V?$allocator@D@2@@std@@V?$unique_ptr@VValue@Json@@U?$default_delete@VValue@Json@@@std@@@2@@std@@PEAX@0@AEBQEAU10@@Z ; std::_Construct_in_place<std::_List_node<std::pair<std::basic_string<char,std::char_traits<char>,std::allocator<char> > const ,std::unique_ptr<Json::Value,std::default_delete<Json::Value> > >,void *> *,std::_List_node<std::pair<std::basic_string<char,std::char_traits<char>,std::allocator<char> > const ,std::unique_ptr<Json::Value,std::default_delete<Json::Value> > >,void *> * const &>
PUBLIC	??$addressof@V?$_List_val@U?$_List_simple_types@U?$pair@$$CBV?$basic_string@DU?$char_traits@D@std@@V?$allocator@D@2@@std@@V?$unique_ptr@VValue@Json@@U?$default_delete@VValue@Json@@@std@@@2@@std@@@std@@@std@@@std@@YAPEAV?$_List_val@U?$_List_simple_types@U?$pair@$$CBV?$basic_string@DU?$char_traits@D@std@@V?$allocator@D@2@@std@@V?$unique_ptr@VValue@Json@@U?$default_delete@VValue@Json@@@std@@@2@@std@@@std@@@0@AEAV10@@Z ; std::addressof<std::_List_val<std::_List_simple_types<std::pair<std::basic_string<char,std::char_traits<char>,std::allocator<char> > const ,std::unique_ptr<Json::Value,std::default_delete<Json::Value> > > > > >
PUBLIC	??$addressof@$$CBV?$_List_val@U?$_List_simple_types@U?$pair@$$CBV?$basic_string@DU?$char_traits@D@std@@V?$allocator@D@2@@std@@V?$unique_ptr@VValue@Json@@U?$default_delete@VValue@Json@@@std@@@2@@std@@@std@@@std@@@std@@YAPEBV?$_List_val@U?$_List_simple_types@U?$pair@$$CBV?$basic_string@DU?$char_traits@D@std@@V?$allocator@D@2@@std@@V?$unique_ptr@VValue@Json@@U?$default_delete@VValue@Json@@@std@@@2@@std@@@std@@@0@AEBV10@@Z ; std::addressof<std::_List_val<std::_List_simple_types<std::pair<std::basic_string<char,std::char_traits<char>,std::allocator<char> > const ,std::unique_ptr<Json::Value,std::default_delete<Json::Value> > > > > const >
PUBLIC	??$_Get_size_of_n@$0DI@@std@@YA_K_K@Z		; std::_Get_size_of_n<56>
PUBLIC	??$exchange@PEAVArray@Json@@$$T@std@@YAPEAVArray@Json@@AEAPEAV12@$$QEA$$T@Z ; std::exchange<Json::Array *,std::nullptr_t>
PUBLIC	??$exchange@PEAVObject@Json@@$$T@std@@YAPEAVObject@Json@@AEAPEAV12@$$QEA$$T@Z ; std::exchange<Json::Object *,std::nullptr_t>
PUBLIC	??$exchange@PEAVBool@Json@@$$T@std@@YAPEAVBool@Json@@AEAPEAV12@$$QEA$$T@Z ; std::exchange<Json::Bool *,std::nullptr_t>
PUBLIC	??$exchange@PEAVNull@Json@@$$T@std@@YAPEAVNull@Json@@AEAPEAV12@$$QEA$$T@Z ; std::exchange<Json::Null *,std::nullptr_t>
PUBLIC	??$exchange@PEAVNumber@Json@@$$T@std@@YAPEAVNumber@Json@@AEAPEAV12@$$QEA$$T@Z ; std::exchange<Json::Number *,std::nullptr_t>
PUBLIC	??$exchange@PEAU?$_List_node@U?$pair@$$CBV?$basic_string@DU?$char_traits@D@std@@V?$allocator@D@2@@std@@V?$unique_ptr@VValue@Json@@U?$default_delete@VValue@Json@@@std@@@2@@std@@PEAX@std@@$$T@std@@YAPEAU?$_List_node@U?$pair@$$CBV?$basic_string@DU?$char_traits@D@std@@V?$allocator@D@2@@std@@V?$unique_ptr@VValue@Json@@U?$default_delete@VValue@Json@@@std@@@2@@std@@PEAX@0@AEAPEAU10@$$QEA$$T@Z ; std::exchange<std::_List_node<std::pair<std::basic_string<char,std::char_traits<char>,std::allocator<char> > const ,std::unique_ptr<Json::Value,std::default_delete<Json::Value> > >,void *> *,std::nullptr_t>
PUBLIC	??$construct_at@PEAU?$_List_node@U?$pair@$$CBV?$basic_string@DU?$char_traits@D@std@@V?$allocator@D@2@@std@@V?$unique_ptr@VValue@Json@@U?$default_delete@VValue@Json@@@std@@@2@@std@@PEAX@std@@AEAPEAU12@@std@@YAPEAPEAU?$_List_node@U?$pair@$$CBV?$basic_string@DU?$char_traits@D@std@@V?$allocator@D@2@@std@@V?$unique_ptr@VValue@Json@@U?$default_delete@VValue@Json@@@std@@@2@@std@@PEAX@0@QEAPEAU10@AEAPEAU10@@Z ; std::construct_at<std::_List_node<std::pair<std::basic_string<char,std::char_traits<char>,std::allocator<char> > const ,std::unique_ptr<Json::Value,std::default_delete<Json::Value> > >,void *> *,std::_List_node<std::pair<std::basic_string<char,std::char_traits<char>,std::allocator<char> > const ,std::unique_ptr<Json::Value,std::default_delete<Json::Value> > >,void *> * &>
PUBLIC	??$forward@AEAPEAU?$_List_node@U?$pair@$$CBV?$basic_string@DU?$char_traits@D@std@@V?$allocator@D@2@@std@@V?$unique_ptr@VValue@Json@@U?$default_delete@VValue@Json@@@std@@@2@@std@@PEAX@std@@@std@@YAAEAPEAU?$_List_node@U?$pair@$$CBV?$basic_string@DU?$char_traits@D@std@@V?$allocator@D@2@@std@@V?$unique_ptr@VValue@Json@@U?$default_delete@VValue@Json@@@std@@@2@@std@@PEAX@0@AEAPEAU10@@Z ; std::forward<std::_List_node<std::pair<std::basic_string<char,std::char_traits<char>,std::allocator<char> > const ,std::unique_ptr<Json::Value,std::default_delete<Json::Value> > >,void *> * &>
PUBLIC	??$addressof@PEAU?$_List_node@U?$pair@$$CBV?$basic_string@DU?$char_traits@D@std@@V?$allocator@D@2@@std@@V?$unique_ptr@VValue@Json@@U?$default_delete@VValue@Json@@@std@@@2@@std@@PEAX@std@@@std@@YAPEAPEAU?$_List_node@U?$pair@$$CBV?$basic_string@DU?$char_traits@D@std@@V?$allocator@D@2@@std@@V?$unique_ptr@VValue@Json@@U?$default_delete@VValue@Json@@@std@@@2@@std@@PEAX@0@AEAPEAU10@@Z ; std::addressof<std::_List_node<std::pair<std::basic_string<char,std::char_traits<char>,std::allocator<char> > const ,std::unique_ptr<Json::Value,std::default_delete<Json::Value> > >,void *> *>
PUBLIC	??$_Construct_in_place@V?$_List_unchecked_iterator@V?$_List_val@U?$_List_simple_types@U?$pair@$$CBV?$basic_string@DU?$char_traits@D@std@@V?$allocator@D@2@@std@@V?$unique_ptr@VValue@Json@@U?$default_delete@VValue@Json@@@std@@@2@@std@@@std@@@std@@@std@@AEBV12@@std@@YAXAEAV?$_List_unchecked_iterator@V?$_List_val@U?$_List_simple_types@U?$pair@$$CBV?$basic_string@DU?$char_traits@D@std@@V?$allocator@D@2@@std@@V?$unique_ptr@VValue@Json@@U?$default_delete@VValue@Json@@@std@@@2@@std@@@std@@@std@@@0@AEBV10@@Z ; std::_Construct_in_place<std::_List_unchecked_iterator<std::_List_val<std::_List_simple_types<std::pair<std::basic_string<char,std::char_traits<char>,std::allocator<char> > const ,std::unique_ptr<Json::Value,std::default_delete<Json::Value> > > > > >,std::_List_unchecked_iterator<std::_List_val<std::_List_simple_types<std::pair<std::basic_string<char,std::char_traits<char>,std::allocator<char> > const ,std::unique_ptr<Json::Value,std::default_delete<Json::Value> > > > > > const &>
PUBLIC	??$forward@AEBV?$_List_unchecked_iterator@V?$_List_val@U?$_List_simple_types@U?$pair@$$CBV?$basic_string@DU?$char_traits@D@std@@V?$allocator@D@2@@std@@V?$unique_ptr@VValue@Json@@U?$default_delete@VValue@Json@@@std@@@2@@std@@@std@@@std@@@std@@@std@@YAAEBV?$_List_unchecked_iterator@V?$_List_val@U?$_List_simple_types@U?$pair@$$CBV?$basic_string@DU?$char_traits@D@std@@V?$allocator@D@2@@std@@V?$unique_ptr@VValue@Json@@U?$default_delete@VValue@Json@@@std@@@2@@std@@@std@@@std@@@0@AEBV10@@Z ; std::forward<std::_List_unchecked_iterator<std::_List_val<std::_List_simple_types<std::pair<std::basic_string<char,std::char_traits<char>,std::allocator<char> > const ,std::unique_ptr<Json::Value,std::default_delete<Json::Value> > > > > > const &>
PUBLIC	??1?$pair@$$CBV?$basic_string@DU?$char_traits@D@std@@V?$allocator@D@2@@std@@V?$unique_ptr@VValue@Json@@U?$default_delete@VValue@Json@@@std@@@2@@std@@QEAA@XZ ; std::pair<std::basic_string<char,std::char_traits<char>,std::allocator<char> > const ,std::unique_ptr<Json::Value,std::default_delete<Json::Value> > >::~pair<std::basic_string<char,std::char_traits<char>,std::allocator<char> > const ,std::unique_ptr<Json::Value,std::default_delete<Json::Value> > >
PUBLIC	??$destroy_at@U?$pair@$$CBV?$basic_string@DU?$char_traits@D@std@@V?$allocator@D@2@@std@@V?$unique_ptr@VValue@Json@@U?$default_delete@VValue@Json@@@std@@@2@@std@@@std@@YAXQEAU?$pair@$$CBV?$basic_string@DU?$char_traits@D@std@@V?$allocator@D@2@@std@@V?$unique_ptr@VValue@Json@@U?$default_delete@VValue@Json@@@std@@@2@@0@@Z ; std::destroy_at<std::pair<std::basic_string<char,std::char_traits<char>,std::allocator<char> > const ,std::unique_ptr<Json::Value,std::default_delete<Json::Value> > > >
PUBLIC	??$_Emplace_back@V?$unique_ptr@VValue@Json@@U?$default_delete@VValue@Json@@@std@@@std@@@?$_Uninitialized_backout_al@V?$allocator@V?$unique_ptr@VValue@Json@@U?$default_delete@VValue@Json@@@std@@@std@@@std@@@std@@QEAAX$$QEAV?$unique_ptr@VValue@Json@@U?$default_delete@VValue@Json@@@std@@@1@@Z ; std::_Uninitialized_backout_al<std::allocator<std::unique_ptr<Json::Value,std::default_delete<Json::Value> > > >::_Emplace_back<std::unique_ptr<Json::Value,std::default_delete<Json::Value> > >
PUBLIC	??$move@AEAV?$unique_ptr@VValue@Json@@U?$default_delete@VValue@Json@@@std@@@std@@@std@@YA$$QEAV?$unique_ptr@VValue@Json@@U?$default_delete@VValue@Json@@@std@@@0@AEAV10@@Z ; std::move<std::unique_ptr<Json::Value,std::default_delete<Json::Value> > &>
PUBLIC	??$construct_at@V?$unique_ptr@VValue@Json@@U?$default_delete@VValue@Json@@@std@@@std@@V12@@std@@YAPEAV?$unique_ptr@VValue@Json@@U?$default_delete@VValue@Json@@@std@@@0@QEAV10@$$QEAV10@@Z ; std::construct_at<std::unique_ptr<Json::Value,std::default_delete<Json::Value> >,std::unique_ptr<Json::Value,std::default_delete<Json::Value> > >
PUBLIC	??$addressof@V?$unique_ptr@VValue@Json@@U?$default_delete@VValue@Json@@@std@@@std@@@std@@YAPEAV?$unique_ptr@VValue@Json@@U?$default_delete@VValue@Json@@@std@@@0@AEAV10@@Z ; std::addressof<std::unique_ptr<Json::Value,std::default_delete<Json::Value> > >
PUBLIC	??$forward@PEAVNumber@Json@@@std@@YA$$QEAPEAVNumber@Json@@AEAPEAV12@@Z ; std::forward<Json::Number *>
PUBLIC	??$?0AEAPEAVNumber@Json@@@?$_Compressed_pair@U?$default_delete@VNumber@Json@@@std@@PEAVNumber@Json@@$00@std@@QEAA@U_Zero_then_variadic_args_t@1@AEAPEAVNumber@Json@@@Z ; std::_Compressed_pair<std::default_delete<Json::Number>,Json::Number *,1>::_Compressed_pair<std::default_delete<Json::Number>,Json::Number *,1><Json::Number * &>
PUBLIC	??$forward@PEAVNull@Json@@@std@@YA$$QEAPEAVNull@Json@@AEAPEAV12@@Z ; std::forward<Json::Null *>
PUBLIC	??$?0AEAPEAVNull@Json@@@?$_Compressed_pair@U?$default_delete@VNull@Json@@@std@@PEAVNull@Json@@$00@std@@QEAA@U_Zero_then_variadic_args_t@1@AEAPEAVNull@Json@@@Z ; std::_Compressed_pair<std::default_delete<Json::Null>,Json::Null *,1>::_Compressed_pair<std::default_delete<Json::Null>,Json::Null *,1><Json::Null * &>
PUBLIC	??$forward@PEAVBool@Json@@@std@@YA$$QEAPEAVBool@Json@@AEAPEAV12@@Z ; std::forward<Json::Bool *>
PUBLIC	??$?0AEAPEAVBool@Json@@@?$_Compressed_pair@U?$default_delete@VBool@Json@@@std@@PEAVBool@Json@@$00@std@@QEAA@U_Zero_then_variadic_args_t@1@AEAPEAVBool@Json@@@Z ; std::_Compressed_pair<std::default_delete<Json::Bool>,Json::Bool *,1>::_Compressed_pair<std::default_delete<Json::Bool>,Json::Bool *,1><Json::Bool * &>
PUBLIC	??$forward@AEAPEAVString@Json@@@std@@YAAEAPEAVString@Json@@AEAPEAV12@@Z ; std::forward<Json::String * &>
PUBLIC	??$forward@PEAVArray@Json@@@std@@YA$$QEAPEAVArray@Json@@AEAPEAV12@@Z ; std::forward<Json::Array *>
PUBLIC	??$?0AEAPEAVArray@Json@@@?$_Compressed_pair@U?$default_delete@VArray@Json@@@std@@PEAVArray@Json@@$00@std@@QEAA@U_Zero_then_variadic_args_t@1@AEAPEAVArray@Json@@@Z ; std::_Compressed_pair<std::default_delete<Json::Array>,Json::Array *,1>::_Compressed_pair<std::default_delete<Json::Array>,Json::Array *,1><Json::Array * &>
PUBLIC	??$forward@PEAVObject@Json@@@std@@YA$$QEAPEAVObject@Json@@AEAPEAV12@@Z ; std::forward<Json::Object *>
PUBLIC	??$forward@V?$_List_iterator@V?$_List_val@U?$_List_simple_types@U?$pair@$$CBV?$basic_string@DU?$char_traits@D@std@@V?$allocator@D@2@@std@@V?$unique_ptr@VValue@Json@@U?$default_delete@VValue@Json@@@std@@@2@@std@@@std@@@std@@@std@@@std@@YA$$QEAV?$_List_iterator@V?$_List_val@U?$_List_simple_types@U?$pair@$$CBV?$basic_string@DU?$char_traits@D@std@@V?$allocator@D@2@@std@@V?$unique_ptr@VValue@Json@@U?$default_delete@VValue@Json@@@std@@@2@@std@@@std@@@std@@@0@AEAV10@@Z ; std::forward<std::_List_iterator<std::_List_val<std::_List_simple_types<std::pair<std::basic_string<char,std::char_traits<char>,std::allocator<char> > const ,std::unique_ptr<Json::Value,std::default_delete<Json::Value> > > > > > >
PUBLIC	??$construct@U?$pair@$$CBV?$basic_string@DU?$char_traits@D@std@@V?$allocator@D@2@@std@@V?$unique_ptr@VValue@Json@@U?$default_delete@VValue@Json@@@std@@@2@@std@@V?$basic_string@DU?$char_traits@D@std@@V?$allocator@D@2@@2@V?$unique_ptr@VValue@Json@@U?$default_delete@VValue@Json@@@std@@@2@@?$_Default_allocator_traits@V?$allocator@U?$_List_node@U?$pair@$$CBV?$basic_string@DU?$char_traits@D@std@@V?$allocator@D@2@@std@@V?$unique_ptr@VValue@Json@@U?$default_delete@VValue@Json@@@std@@@2@@std@@PEAX@std@@@std@@@std@@SAXAEAV?$allocator@U?$_List_node@U?$pair@$$CBV?$basic_string@DU?$char_traits@D@std@@V?$allocator@D@2@@std@@V?$unique_ptr@VValue@Json@@U?$default_delete@VValue@Json@@@std@@@2@@std@@PEAX@std@@@1@QEAU?$pair@$$CBV?$basic_string@DU?$char_traits@D@std@@V?$allocator@D@2@@std@@V?$unique_ptr@VValue@Json@@U?$default_delete@VValue@Json@@@std@@@2@@1@$$QEAV?$basic_string@DU?$char_traits@D@std@@V?$allocator@D@2@@1@$$QEAV?$unique_ptr@VValue@Json@@U?$default_delete@VValue@Json@@@std@@@1@@Z ; std::_Default_allocator_traits<std::allocator<std::_List_node<std::pair<std::basic_string<char,std::char_traits<char>,std::allocator<char> > const ,std::unique_ptr<Json::Value,std::default_delete<Json::Value> > >,void *> > >::construct<std::pair<std::basic_string<char,std::char_traits<char>,std::allocator<char> > const ,std::unique_ptr<Json::Value,std::default_delete<Json::Value> > >,std::basic_string<char,std::char_traits<char>,std::allocator<char> >,std::unique_ptr<Json::Value,std::default_delete<Json::Value> > >
PUBLIC	??$?RV?$basic_string@DU?$char_traits@D@std@@V?$allocator@D@2@@std@@V01@@?$_Uhash_compare@V?$basic_string@DU?$char_traits@D@std@@V?$allocator@D@2@@std@@U?$hash@V?$basic_string@DU?$char_traits@D@std@@V?$allocator@D@2@@std@@@2@U?$equal_to@V?$basic_string@DU?$char_traits@D@std@@V?$allocator@D@2@@std@@@2@@std@@QEBA_NAEBV?$basic_string@DU?$char_traits@D@std@@V?$allocator@D@2@@1@0@Z ; std::_Uhash_compare<std::basic_string<char,std::char_traits<char>,std::allocator<char> >,std::hash<std::basic_string<char,std::char_traits<char>,std::allocator<char> > >,std::equal_to<std::basic_string<char,std::char_traits<char>,std::allocator<char> > > >::operator()<std::basic_string<char,std::char_traits<char>,std::allocator<char> >,std::basic_string<char,std::char_traits<char>,std::allocator<char> > >
PUBLIC	??$?0AEAPEAVObject@Json@@@?$_Compressed_pair@U?$default_delete@VObject@Json@@@std@@PEAVObject@Json@@$00@std@@QEAA@U_Zero_then_variadic_args_t@1@AEAPEAVObject@Json@@@Z ; std::_Compressed_pair<std::default_delete<Json::Object>,Json::Object *,1>::_Compressed_pair<std::default_delete<Json::Object>,Json::Object *,1><Json::Object * &>
PUBLIC	??$?0VNumber@Json@@$0A@@?$default_delete@VValue@Json@@@std@@QEAA@AEBU?$default_delete@VNumber@Json@@@1@@Z ; std::default_delete<Json::Value>::default_delete<Json::Value><Json::Number,0>
PUBLIC	??$?0VNull@Json@@$0A@@?$default_delete@VValue@Json@@@std@@QEAA@AEBU?$default_delete@VNull@Json@@@1@@Z ; std::default_delete<Json::Value>::default_delete<Json::Value><Json::Null,0>
PUBLIC	??$?0VBool@Json@@$0A@@?$default_delete@VValue@Json@@@std@@QEAA@AEBU?$default_delete@VBool@Json@@@1@@Z ; std::default_delete<Json::Value>::default_delete<Json::Value><Json::Bool,0>
PUBLIC	??$?0VArray@Json@@$0A@@?$default_delete@VValue@Json@@@std@@QEAA@AEBU?$default_delete@VArray@Json@@@1@@Z ; std::default_delete<Json::Value>::default_delete<Json::Value><Json::Array,0>
PUBLIC	??$?0VObject@Json@@$0A@@?$default_delete@VValue@Json@@@std@@QEAA@AEBU?$default_delete@VObject@Json@@@1@@Z ; std::default_delete<Json::Value>::default_delete<Json::Value><Json::Object,0>
PUBLIC	??$?0U?$default_delete@VValue@Json@@@std@@$0A@@?$unique_ptr@VValue@Json@@U?$default_delete@VValue@Json@@@std@@@std@@QEAA@$$QEAV01@@Z ; std::unique_ptr<Json::Value,std::default_delete<Json::Value> >::unique_ptr<Json::Value,std::default_delete<Json::Value> ><std::default_delete<Json::Value>,0>
PUBLIC	??0?$_List_const_iterator@V?$_List_val@U?$_List_simple_types@U?$pair@$$CBV?$basic_string@DU?$char_traits@D@std@@V?$allocator@D@2@@std@@V?$unique_ptr@VValue@Json@@U?$default_delete@VValue@Json@@@std@@@2@@std@@@std@@@std@@@std@@QEAA@PEAU?$_List_node@U?$pair@$$CBV?$basic_string@DU?$char_traits@D@std@@V?$allocator@D@2@@std@@V?$unique_ptr@VValue@Json@@U?$default_delete@VValue@Json@@@std@@@2@@std@@PEAX@1@PEBV?$_List_val@U?$_List_simple_types@U?$pair@$$CBV?$basic_string@DU?$char_traits@D@std@@V?$allocator@D@2@@std@@V?$unique_ptr@VValue@Json@@U?$default_delete@VValue@Json@@@std@@@2@@std@@@std@@@1@@Z ; std::_List_const_iterator<std::_List_val<std::_List_simple_types<std::pair<std::basic_string<char,std::char_traits<char>,std::allocator<char> > const ,std::unique_ptr<Json::Value,std::default_delete<Json::Value> > > > > >::_List_const_iterator<std::_List_val<std::_List_simple_types<std::pair<std::basic_string<char,std::char_traits<char>,std::allocator<char> > const ,std::unique_ptr<Json::Value,std::default_delete<Json::Value> > > > > >
PUBLIC	??0?$_List_iterator@V?$_List_val@U?$_List_simple_types@U?$pair@$$CBV?$basic_string@DU?$char_traits@D@std@@V?$allocator@D@2@@std@@V?$unique_ptr@VValue@Json@@U?$default_delete@VValue@Json@@@std@@@2@@std@@@std@@@std@@@std@@QEAA@PEAU?$_List_node@U?$pair@$$CBV?$basic_string@DU?$char_traits@D@std@@V?$allocator@D@2@@std@@V?$unique_ptr@VValue@Json@@U?$default_delete@VValue@Json@@@std@@@2@@std@@PEAX@1@PEBV?$_List_val@U?$_List_simple_types@U?$pair@$$CBV?$basic_string@DU?$char_traits@D@std@@V?$allocator@D@2@@std@@V?$unique_ptr@VValue@Json@@U?$default_delete@VValue@Json@@@std@@@2@@std@@@std@@@1@@Z ; std::_List_iterator<std::_List_val<std::_List_simple_types<std::pair<std::basic_string<char,std::char_traits<char>,std::allocator<char> > const ,std::unique_ptr<Json::Value,std::default_delete<Json::Value> > > > > >::_List_iterator<std::_List_val<std::_List_simple_types<std::pair<std::basic_string<char,std::char_traits<char>,std::allocator<char> > const ,std::unique_ptr<Json::Value,std::default_delete<Json::Value> > > > > >
PUBLIC	??_G?$unique_ptr@VValue@Json@@U?$default_delete@VValue@Json@@@std@@@std@@QEAAPEAXI@Z ; std::unique_ptr<Json::Value,std::default_delete<Json::Value> >::`scalar deleting destructor'
PUBLIC	?__autoclassinit2@?$_Uninitialized_backout_al@V?$allocator@V?$unique_ptr@VValue@Json@@U?$default_delete@VValue@Json@@@std@@@std@@@std@@@std@@QEAAX_K@Z ; std::_Uninitialized_backout_al<std::allocator<std::unique_ptr<Json::Value,std::default_delete<Json::Value> > > >::__autoclassinit2
PUBLIC	?insert@?$basic_string@DU?$char_traits@D@std@@V?$allocator@D@2@@std@@QEAAAEAV12@_KQEBD@Z ; std::basic_string<char,std::char_traits<char>,std::allocator<char> >::insert
PUBLIC	?_Xran@?$_String_val@U?$_Simple_types@D@std@@@std@@SAXXZ ; std::_String_val<std::_Simple_types<char> >::_Xran
PUBLIC	?max_size@?$vector@V?$unique_ptr@VValue@Json@@U?$default_delete@VValue@Json@@@std@@@std@@V?$allocator@V?$unique_ptr@VValue@Json@@U?$default_delete@VValue@Json@@@std@@@std@@@2@@std@@QEBA_KXZ ; std::vector<std::unique_ptr<Json::Value,std::default_delete<Json::Value> >,std::allocator<std::unique_ptr<Json::Value,std::default_delete<Json::Value> > > >::max_size
PUBLIC	?_Calculate_growth@?$vector@V?$unique_ptr@VValue@Json@@U?$default_delete@VValue@Json@@@std@@@std@@V?$allocator@V?$unique_ptr@VValue@Json@@U?$default_delete@VValue@Json@@@std@@@std@@@2@@std@@AEBA_K_K@Z ; std::vector<std::unique_ptr<Json::Value,std::default_delete<Json::Value> >,std::allocator<std::unique_ptr<Json::Value,std::default_delete<Json::Value> > > >::_Calculate_growth
PUBLIC	?_Change_array@?$vector@V?$unique_ptr@VValue@Json@@U?$default_delete@VValue@Json@@@std@@@std@@V?$allocator@V?$unique_ptr@VValue@Json@@U?$default_delete@VValue@Json@@@std@@@std@@@2@@std@@AEAAXQEAV?$unique_ptr@VValue@Json@@U?$default_delete@VValue@Json@@@std@@@2@_K1@Z ; std::vector<std::unique_ptr<Json::Value,std::default_delete<Json::Value> >,std::allocator<std::unique_ptr<Json::Value,std::default_delete<Json::Value> > > >::_Change_array
PUBLIC	?_Xlength@?$vector@V?$unique_ptr@VValue@Json@@U?$default_delete@VValue@Json@@@std@@@std@@V?$allocator@V?$unique_ptr@VValue@Json@@U?$default_delete@VValue@Json@@@std@@@std@@@2@@std@@CAXXZ ; std::vector<std::unique_ptr<Json::Value,std::default_delete<Json::Value> >,std::allocator<std::unique_ptr<Json::Value,std::default_delete<Json::Value> > > >::_Xlength
PUBLIC	?_Orphan_range@?$vector@V?$unique_ptr@VValue@Json@@U?$default_delete@VValue@Json@@@std@@@std@@V?$allocator@V?$unique_ptr@VValue@Json@@U?$default_delete@VValue@Json@@@std@@@std@@@2@@std@@AEBAXPEAV?$unique_ptr@VValue@Json@@U?$default_delete@VValue@Json@@@std@@@2@0@Z ; std::vector<std::unique_ptr<Json::Value,std::default_delete<Json::Value> >,std::allocator<std::unique_ptr<Json::Value,std::default_delete<Json::Value> > > >::_Orphan_range
PUBLIC	??1_Reallocation_guard@?$vector@V?$unique_ptr@VValue@Json@@U?$default_delete@VValue@Json@@@std@@@std@@V?$allocator@V?$unique_ptr@VValue@Json@@U?$default_delete@VValue@Json@@@std@@@std@@@2@@std@@QEAA@XZ ; std::vector<std::unique_ptr<Json::Value,std::default_delete<Json::Value> >,std::allocator<std::unique_ptr<Json::Value,std::default_delete<Json::Value> > > >::_Reallocation_guard::~_Reallocation_guard
PUBLIC	?_Insert_new_node_before@?$_Hash@V?$_Umap_traits@V?$basic_string@DU?$char_traits@D@std@@V?$allocator@D@2@@std@@V?$unique_ptr@VValue@Json@@U?$default_delete@VValue@Json@@@std@@@2@V?$_Uhash_compare@V?$basic_string@DU?$char_traits@D@std@@V?$allocator@D@2@@std@@U?$hash@V?$basic_string@DU?$char_traits@D@std@@V?$allocator@D@2@@std@@@2@U?$equal_to@V?$basic_string@DU?$char_traits@D@std@@V?$allocator@D@2@@std@@@2@@2@V?$allocator@U?$pair@$$CBV?$basic_string@DU?$char_traits@D@std@@V?$allocator@D@2@@std@@V?$unique_ptr@VValue@Json@@U?$default_delete@VValue@Json@@@std@@@2@@std@@@2@$0A@@std@@@std@@IEAAPEAU?$_List_node@U?$pair@$$CBV?$basic_string@DU?$char_traits@D@std@@V?$allocator@D@2@@std@@V?$unique_ptr@VValue@Json@@U?$default_delete@VValue@Json@@@std@@@2@@std@@PEAX@2@_KQEAU32@1@Z ; std::_Hash<std::_Umap_traits<std::basic_string<char,std::char_traits<char>,std::allocator<char> >,std::unique_ptr<Json::Value,std::default_delete<Json::Value> >,std::_Uhash_compare<std::basic_string<char,std::char_traits<char>,std::allocator<char> >,std::hash<std::basic_string<char,std::char_traits<char>,std::allocator<char> > >,std::equal_to<std::basic_string<char,std::char_traits<char>,std::allocator<char> > > >,std::allocator<std::pair<std::basic_string<char,std::char_traits<char>,std::allocator<char> > const ,std::unique_ptr<Json::Value,std::default_delete<Json::Value> > > >,0> >::_Insert_new_node_before
PUBLIC	?_Check_max_size@?$_Hash@V?$_Umap_traits@V?$basic_string@DU?$char_traits@D@std@@V?$allocator@D@2@@std@@V?$unique_ptr@VValue@Json@@U?$default_delete@VValue@Json@@@std@@@2@V?$_Uhash_compare@V?$basic_string@DU?$char_traits@D@std@@V?$allocator@D@2@@std@@U?$hash@V?$basic_string@DU?$char_traits@D@std@@V?$allocator@D@2@@std@@@2@U?$equal_to@V?$basic_string@DU?$char_traits@D@std@@V?$allocator@D@2@@std@@@2@@2@V?$allocator@U?$pair@$$CBV?$basic_string@DU?$char_traits@D@std@@V?$allocator@D@2@@std@@V?$unique_ptr@VValue@Json@@U?$default_delete@VValue@Json@@@std@@@2@@std@@@2@$0A@@std@@@std@@IEBAXXZ ; std::_Hash<std::_Umap_traits<std::basic_string<char,std::char_traits<char>,std::allocator<char> >,std::unique_ptr<Json::Value,std::default_delete<Json::Value> >,std::_Uhash_compare<std::basic_string<char,std::char_traits<char>,std::allocator<char> >,std::hash<std::basic_string<char,std::char_traits<char>,std::allocator<char> > >,std::equal_to<std::basic_string<char,std::char_traits<char>,std::allocator<char> > > >,std::allocator<std::pair<std::basic_string<char,std::char_traits<char>,std::allocator<char> > const ,std::unique_ptr<Json::Value,std::default_delete<Json::Value> > > >,0> >::_Check_max_size
PUBLIC	?_Check_rehash_required_1@?$_Hash@V?$_Umap_traits@V?$basic_string@DU?$char_traits@D@std@@V?$allocator@D@2@@std@@V?$unique_ptr@VValue@Json@@U?$default_delete@VValue@Json@@@std@@@2@V?$_Uhash_compare@V?$basic_string@DU?$char_traits@D@std@@V?$allocator@D@2@@std@@U?$hash@V?$basic_string@DU?$char_traits@D@std@@V?$allocator@D@2@@std@@@2@U?$equal_to@V?$basic_string@DU?$char_traits@D@std@@V?$allocator@D@2@@std@@@2@@2@V?$allocator@U?$pair@$$CBV?$basic_string@DU?$char_traits@D@std@@V?$allocator@D@2@@std@@V?$unique_ptr@VValue@Json@@U?$default_delete@VValue@Json@@@std@@@2@@std@@@2@$0A@@std@@@std@@IEBA_NXZ ; std::_Hash<std::_Umap_traits<std::basic_string<char,std::char_traits<char>,std::allocator<char> >,std::unique_ptr<Json::Value,std::default_delete<Json::Value> >,std::_Uhash_compare<std::basic_string<char,std::char_traits<char>,std::allocator<char> >,std::hash<std::basic_string<char,std::char_traits<char>,std::allocator<char> > >,std::equal_to<std::basic_string<char,std::char_traits<char>,std::allocator<char> > > >,std::allocator<std::pair<std::basic_string<char,std::char_traits<char>,std::allocator<char> > const ,std::unique_ptr<Json::Value,std::default_delete<Json::Value> > > >,0> >::_Check_rehash_required_1
PUBLIC	?_Rehash_for_1@?$_Hash@V?$_Umap_traits@V?$basic_string@DU?$char_traits@D@std@@V?$allocator@D@2@@std@@V?$unique_ptr@VValue@Json@@U?$default_delete@VValue@Json@@@std@@@2@V?$_Uhash_compare@V?$basic_string@DU?$char_traits@D@std@@V?$allocator@D@2@@std@@U?$hash@V?$basic_string@DU?$char_traits@D@std@@V?$allocator@D@2@@std@@@2@U?$equal_to@V?$basic_string@DU?$char_traits@D@std@@V?$allocator@D@2@@std@@@2@@2@V?$allocator@U?$pair@$$CBV?$basic_string@DU?$char_traits@D@std@@V?$allocator@D@2@@std@@V?$unique_ptr@VValue@Json@@U?$default_delete@VValue@Json@@@std@@@2@@std@@@2@$0A@@std@@@std@@IEAAXXZ ; std::_Hash<std::_Umap_traits<std::basic_string<char,std::char_traits<char>,std::allocator<char> >,std::unique_ptr<Json::Value,std::default_delete<Json::Value> >,std::_Uhash_compare<std::basic_string<char,std::char_traits<char>,std::allocator<char> >,std::hash<std::basic_string<char,std::char_traits<char>,std::allocator<char> > >,std::equal_to<std::basic_string<char,std::char_traits<char>,std::allocator<char> > > >,std::allocator<std::pair<std::basic_string<char,std::char_traits<char>,std::allocator<char> > const ,std::unique_ptr<Json::Value,std::default_delete<Json::Value> > > >,0> >::_Rehash_for_1
PUBLIC	?end@?$list@U?$pair@$$CBV?$basic_string@DU?$char_traits@D@std@@V?$allocator@D@2@@std@@V?$unique_ptr@VValue@Json@@U?$default_delete@VValue@Json@@@std@@@2@@std@@V?$allocator@U?$pair@$$CBV?$basic_string@DU?$char_traits@D@std@@V?$allocator@D@2@@std@@V?$unique_ptr@VValue@Json@@U?$default_delete@VValue@Json@@@std@@@2@@std@@@2@@std@@QEAA?AV?$_List_iterator@V?$_List_val@U?$_List_simple_types@U?$pair@$$CBV?$basic_string@DU?$char_traits@D@std@@V?$allocator@D@2@@std@@V?$unique_ptr@VValue@Json@@U?$default_delete@VValue@Json@@@std@@@2@@std@@@std@@@std@@@2@XZ ; std::list<std::pair<std::basic_string<char,std::char_traits<char>,std::allocator<char> > const ,std::unique_ptr<Json::Value,std::default_delete<Json::Value> > >,std::allocator<std::pair<std::basic_string<char,std::char_traits<char>,std::allocator<char> > const ,std::unique_ptr<Json::Value,std::default_delete<Json::Value> > > > >::end
PUBLIC	?_Make_iter@?$list@U?$pair@$$CBV?$basic_string@DU?$char_traits@D@std@@V?$allocator@D@2@@std@@V?$unique_ptr@VValue@Json@@U?$default_delete@VValue@Json@@@std@@@2@@std@@V?$allocator@U?$pair@$$CBV?$basic_string@DU?$char_traits@D@std@@V?$allocator@D@2@@std@@V?$unique_ptr@VValue@Json@@U?$default_delete@VValue@Json@@@std@@@2@@std@@@2@@std@@QEBA?AV?$_List_iterator@V?$_List_val@U?$_List_simple_types@U?$pair@$$CBV?$basic_string@DU?$char_traits@D@std@@V?$allocator@D@2@@std@@V?$unique_ptr@VValue@Json@@U?$default_delete@VValue@Json@@@std@@@2@@std@@@std@@@std@@@2@PEAU?$_List_node@U?$pair@$$CBV?$basic_string@DU?$char_traits@D@std@@V?$allocator@D@2@@std@@V?$unique_ptr@VValue@Json@@U?$default_delete@VValue@Json@@@std@@@2@@std@@PEAX@2@@Z ; std::list<std::pair<std::basic_string<char,std::char_traits<char>,std::allocator<char> > const ,std::unique_ptr<Json::Value,std::default_delete<Json::Value> > >,std::allocator<std::pair<std::basic_string<char,std::char_traits<char>,std::allocator<char> > const ,std::unique_ptr<Json::Value,std::default_delete<Json::Value> > > > >::_Make_iter
PUBLIC	?deallocate@?$allocator@U?$_List_node@U?$pair@$$CBV?$basic_string@DU?$char_traits@D@std@@V?$allocator@D@2@@std@@V?$unique_ptr@VValue@Json@@U?$default_delete@VValue@Json@@@std@@@2@@std@@PEAX@std@@@std@@QEAAXQEAU?$_List_node@U?$pair@$$CBV?$basic_string@DU?$char_traits@D@std@@V?$allocator@D@2@@std@@V?$unique_ptr@VValue@Json@@U?$default_delete@VValue@Json@@@std@@@2@@std@@PEAX@2@_K@Z ; std::allocator<std::_List_node<std::pair<std::basic_string<char,std::char_traits<char>,std::allocator<char> > const ,std::unique_ptr<Json::Value,std::default_delete<Json::Value> > >,void *> >::deallocate
PUBLIC	?allocate@?$allocator@U?$_List_node@U?$pair@$$CBV?$basic_string@DU?$char_traits@D@std@@V?$allocator@D@2@@std@@V?$unique_ptr@VValue@Json@@U?$default_delete@VValue@Json@@@std@@@2@@std@@PEAX@std@@@std@@QEAAPEAU?$_List_node@U?$pair@$$CBV?$basic_string@DU?$char_traits@D@std@@V?$allocator@D@2@@std@@V?$unique_ptr@VValue@Json@@U?$default_delete@VValue@Json@@@std@@@2@@std@@PEAX@2@_K@Z ; std::allocator<std::_List_node<std::pair<std::basic_string<char,std::char_traits<char>,std::allocator<char> > const ,std::unique_ptr<Json::Value,std::default_delete<Json::Value> > >,void *> >::allocate
PUBLIC	??0?$_List_val@U?$_List_simple_types@U?$pair@$$CBV?$basic_string@DU?$char_traits@D@std@@V?$allocator@D@2@@std@@V?$unique_ptr@VValue@Json@@U?$default_delete@VValue@Json@@@std@@@2@@std@@@std@@@std@@QEAA@XZ ; std::_List_val<std::_List_simple_types<std::pair<std::basic_string<char,std::char_traits<char>,std::allocator<char> > const ,std::unique_ptr<Json::Value,std::default_delete<Json::Value> > > > >::_List_val<std::_List_simple_types<std::pair<std::basic_string<char,std::char_traits<char>,std::allocator<char> > const ,std::unique_ptr<Json::Value,std::default_delete<Json::Value> > > > >
PUBLIC	??0?$_Vector_val@U?$_Simple_types@V?$_List_unchecked_iterator@V?$_List_val@U?$_List_simple_types@U?$pair@$$CBV?$basic_string@DU?$char_traits@D@std@@V?$allocator@D@2@@std@@V?$unique_ptr@VValue@Json@@U?$default_delete@VValue@Json@@@std@@@2@@std@@@std@@@std@@@std@@@std@@@std@@QEAA@XZ ; std::_Vector_val<std::_Simple_types<std::_List_unchecked_iterator<std::_List_val<std::_List_simple_types<std::pair<std::basic_string<char,std::char_traits<char>,std::allocator<char> > const ,std::unique_ptr<Json::Value,std::default_delete<Json::Value> > > > > > > >::_Vector_val<std::_Simple_types<std::_List_unchecked_iterator<std::_List_val<std::_List_simple_types<std::pair<std::basic_string<char,std::char_traits<char>,std::allocator<char> > const ,std::unique_ptr<Json::Value,std::default_delete<Json::Value> > > > > > > >
PUBLIC	??R?$default_delete@VArray@Json@@@std@@QEBAXPEAVArray@Json@@@Z ; std::default_delete<Json::Array>::operator()
PUBLIC	?get_deleter@?$unique_ptr@VArray@Json@@U?$default_delete@VArray@Json@@@std@@@std@@QEAAAEAU?$default_delete@VArray@Json@@@2@XZ ; std::unique_ptr<Json::Array,std::default_delete<Json::Array> >::get_deleter
PUBLIC	?release@?$unique_ptr@VArray@Json@@U?$default_delete@VArray@Json@@@std@@@std@@QEAAPEAVArray@Json@@XZ ; std::unique_ptr<Json::Array,std::default_delete<Json::Array> >::release
PUBLIC	?_Get_first@?$_Compressed_pair@U?$default_delete@VArray@Json@@@std@@PEAVArray@Json@@$00@std@@QEAAAEAU?$default_delete@VArray@Json@@@2@XZ ; std::_Compressed_pair<std::default_delete<Json::Array>,Json::Array *,1>::_Get_first
PUBLIC	??R?$default_delete@VObject@Json@@@std@@QEBAXPEAVObject@Json@@@Z ; std::default_delete<Json::Object>::operator()
PUBLIC	?get_deleter@?$unique_ptr@VObject@Json@@U?$default_delete@VObject@Json@@@std@@@std@@QEAAAEAU?$default_delete@VObject@Json@@@2@XZ ; std::unique_ptr<Json::Object,std::default_delete<Json::Object> >::get_deleter
PUBLIC	?release@?$unique_ptr@VObject@Json@@U?$default_delete@VObject@Json@@@std@@@std@@QEAAPEAVObject@Json@@XZ ; std::unique_ptr<Json::Object,std::default_delete<Json::Object> >::release
PUBLIC	?_Get_first@?$_Compressed_pair@U?$default_delete@VObject@Json@@@std@@PEAVObject@Json@@$00@std@@QEAAAEAU?$default_delete@VObject@Json@@@2@XZ ; std::_Compressed_pair<std::default_delete<Json::Object>,Json::Object *,1>::_Get_first
PUBLIC	??R?$default_delete@VBool@Json@@@std@@QEBAXPEAVBool@Json@@@Z ; std::default_delete<Json::Bool>::operator()
PUBLIC	?get_deleter@?$unique_ptr@VBool@Json@@U?$default_delete@VBool@Json@@@std@@@std@@QEAAAEAU?$default_delete@VBool@Json@@@2@XZ ; std::unique_ptr<Json::Bool,std::default_delete<Json::Bool> >::get_deleter
PUBLIC	?release@?$unique_ptr@VBool@Json@@U?$default_delete@VBool@Json@@@std@@@std@@QEAAPEAVBool@Json@@XZ ; std::unique_ptr<Json::Bool,std::default_delete<Json::Bool> >::release
PUBLIC	?_Get_first@?$_Compressed_pair@U?$default_delete@VBool@Json@@@std@@PEAVBool@Json@@$00@std@@QEAAAEAU?$default_delete@VBool@Json@@@2@XZ ; std::_Compressed_pair<std::default_delete<Json::Bool>,Json::Bool *,1>::_Get_first
PUBLIC	??R?$default_delete@VNull@Json@@@std@@QEBAXPEAVNull@Json@@@Z ; std::default_delete<Json::Null>::operator()
PUBLIC	?get_deleter@?$unique_ptr@VNull@Json@@U?$default_delete@VNull@Json@@@std@@@std@@QEAAAEAU?$default_delete@VNull@Json@@@2@XZ ; std::unique_ptr<Json::Null,std::default_delete<Json::Null> >::get_deleter
PUBLIC	?release@?$unique_ptr@VNull@Json@@U?$default_delete@VNull@Json@@@std@@@std@@QEAAPEAVNull@Json@@XZ ; std::unique_ptr<Json::Null,std::default_delete<Json::Null> >::release
PUBLIC	?_Get_first@?$_Compressed_pair@U?$default_delete@VNull@Json@@@std@@PEAVNull@Json@@$00@std@@QEAAAEAU?$default_delete@VNull@Json@@@2@XZ ; std::_Compressed_pair<std::default_delete<Json::Null>,Json::Null *,1>::_Get_first
PUBLIC	??R?$default_delete@VNumber@Json@@@std@@QEBAXPEAVNumber@Json@@@Z ; std::default_delete<Json::Number>::operator()
PUBLIC	?get_deleter@?$unique_ptr@VNumber@Json@@U?$default_delete@VNumber@Json@@@std@@@std@@QEAAAEAU?$default_delete@VNumber@Json@@@2@XZ ; std::unique_ptr<Json::Number,std::default_delete<Json::Number> >::get_deleter
PUBLIC	?release@?$unique_ptr@VNumber@Json@@U?$default_delete@VNumber@Json@@@std@@@std@@QEAAPEAVNumber@Json@@XZ ; std::unique_ptr<Json::Number,std::default_delete<Json::Number> >::release
PUBLIC	?_Get_first@?$_Compressed_pair@U?$default_delete@VNumber@Json@@@std@@PEAVNumber@Json@@$00@std@@QEAAAEAU?$default_delete@VNumber@Json@@@2@XZ ; std::_Compressed_pair<std::default_delete<Json::Number>,Json::Number *,1>::_Get_first
PUBLIC	?_Extract@?$_In_place_key_extract_map_impl@V?$basic_string@DU?$char_traits@D@std@@V?$allocator@D@2@@std@@V12@V?$unique_ptr@VValue@Json@@U?$default_delete@VValue@Json@@@std@@@2@@std@@SAAEBV?$basic_string@DU?$char_traits@D@std@@V?$allocator@D@2@@2@AEBV32@AEBV?$unique_ptr@VValue@Json@@U?$default_delete@VValue@Json@@@std@@@2@@Z ; std::_In_place_key_extract_map_impl<std::basic_string<char,std::char_traits<char>,std::allocator<char> >,std::basic_string<char,std::char_traits<char>,std::allocator<char> >,std::unique_ptr<Json::Value,std::default_delete<Json::Value> > >::_Extract
PUBLIC	??1?$_List_node_emplace_op2@V?$allocator@U?$_List_node@U?$pair@$$CBV?$basic_string@DU?$char_traits@D@std@@V?$allocator@D@2@@std@@V?$unique_ptr@VValue@Json@@U?$default_delete@VValue@Json@@@std@@@2@@std@@PEAX@std@@@std@@@std@@QEAA@XZ ; std::_List_node_emplace_op2<std::allocator<std::_List_node<std::pair<std::basic_string<char,std::char_traits<char>,std::allocator<char> > const ,std::unique_ptr<Json::Value,std::default_delete<Json::Value> > >,void *> > >::~_List_node_emplace_op2<std::allocator<std::_List_node<std::pair<std::basic_string<char,std::char_traits<char>,std::allocator<char> > const ,std::unique_ptr<Json::Value,std::default_delete<Json::Value> > >,void *> > >
PUBLIC	?_Release@?$_Alloc_construct_ptr@V?$allocator@U?$_List_node@U?$pair@$$CBV?$basic_string@DU?$char_traits@D@std@@V?$allocator@D@2@@std@@V?$unique_ptr@VValue@Json@@U?$default_delete@VValue@Json@@@std@@@2@@std@@PEAX@std@@@std@@@std@@QEAAPEAU?$_List_node@U?$pair@$$CBV?$basic_string@DU?$char_traits@D@std@@V?$allocator@D@2@@std@@V?$unique_ptr@VValue@Json@@U?$default_delete@VValue@Json@@@std@@@2@@std@@PEAX@2@XZ ; std::_Alloc_construct_ptr<std::allocator<std::_List_node<std::pair<std::basic_string<char,std::char_traits<char>,std::allocator<char> > const ,std::unique_ptr<Json::Value,std::default_delete<Json::Value> > >,void *> > >::_Release
PUBLIC	??0?$_Uninitialized_backout@PEAV?$_List_unchecked_iterator@V?$_List_val@U?$_List_simple_types@U?$pair@$$CBV?$basic_string@DU?$char_traits@D@std@@V?$allocator@D@2@@std@@V?$unique_ptr@VValue@Json@@U?$default_delete@VValue@Json@@@std@@@2@@std@@@std@@@std@@@std@@@std@@QEAA@PEAV?$_List_unchecked_iterator@V?$_List_val@U?$_List_simple_types@U?$pair@$$CBV?$basic_string@DU?$char_traits@D@std@@V?$allocator@D@2@@std@@V?$unique_ptr@VValue@Json@@U?$default_delete@VValue@Json@@@std@@@2@@std@@@std@@@std@@@1@@Z ; std::_Uninitialized_backout<std::_List_unchecked_iterator<std::_List_val<std::_List_simple_types<std::pair<std::basic_string<char,std::char_traits<char>,std::allocator<char> > const ,std::unique_ptr<Json::Value,std::default_delete<Json::Value> > > > > > *>::_Uninitialized_backout<std::_List_unchecked_iterator<std::_List_val<std::_List_simple_types<std::pair<std::basic_string<char,std::char_traits<char>,std::allocator<char> > const ,std::unique_ptr<Json::Value,std::default_delete<Json::Value> > > > > > *>
PUBLIC	??1?$_Uninitialized_backout@PEAV?$_List_unchecked_iterator@V?$_List_val@U?$_List_simple_types@U?$pair@$$CBV?$basic_string@DU?$char_traits@D@std@@V?$allocator@D@2@@std@@V?$unique_ptr@VValue@Json@@U?$default_delete@VValue@Json@@@std@@@2@@std@@@std@@@std@@@std@@@std@@QEAA@XZ ; std::_Uninitialized_backout<std::_List_unchecked_iterator<std::_List_val<std::_List_simple_types<std::pair<std::basic_string<char,std::char_traits<char>,std::allocator<char> > const ,std::unique_ptr<Json::Value,std::default_delete<Json::Value> > > > > > *>::~_Uninitialized_backout<std::_List_unchecked_iterator<std::_List_val<std::_List_simple_types<std::pair<std::basic_string<char,std::char_traits<char>,std::allocator<char> > const ,std::unique_ptr<Json::Value,std::default_delete<Json::Value> > > > > > *>
PUBLIC	?_Release@?$_Uninitialized_backout@PEAV?$_List_unchecked_iterator@V?$_List_val@U?$_List_simple_types@U?$pair@$$CBV?$basic_string@DU?$char_traits@D@std@@V?$allocator@D@2@@std@@V?$unique_ptr@VValue@Json@@U?$default_delete@VValue@Json@@@std@@@2@@std@@@std@@@std@@@std@@@std@@QEAAPEAV?$_List_unchecked_iterator@V?$_List_val@U?$_List_simple_types@U?$pair@$$CBV?$basic_string@DU?$char_traits@D@std@@V?$allocator@D@2@@std@@V?$unique_ptr@VValue@Json@@U?$default_delete@VValue@Json@@@std@@@2@@std@@@std@@@std@@@2@XZ ; std::_Uninitialized_backout<std::_List_unchecked_iterator<std::_List_val<std::_List_simple_types<std::pair<std::basic_string<char,std::char_traits<char>,std::allocator<char> > const ,std::unique_ptr<Json::Value,std::default_delete<Json::Value> > > > > > *>::_Release
PUBLIC	??$_Reallocate_grow_by@V<lambda_1>@?1??reserve@?$basic_string@DU?$char_traits@D@std@@V?$allocator@D@2@@std@@QEAAX_K@Z@$$V@?$basic_string@DU?$char_traits@D@std@@V?$allocator@D@2@@std@@AEAAAEAV01@_KV<lambda_1>@?1??reserve@01@QEAAX0@Z@@Z ; std::basic_string<char,std::char_traits<char>,std::allocator<char> >::_Reallocate_grow_by<`std::basic_string<char,std::char_traits<char>,std::allocator<char> >::reserve'::`2'::<lambda_1> >
PUBLIC	??$_Find@V?$basic_string@DU?$char_traits@D@std@@V?$allocator@D@2@@std@@@?$_Hash@V?$_Umap_traits@V?$basic_string@DU?$char_traits@D@std@@V?$allocator@D@2@@std@@V?$unique_ptr@VValue@Json@@U?$default_delete@VValue@Json@@@std@@@2@V?$_Uhash_compare@V?$basic_string@DU?$char_traits@D@std@@V?$allocator@D@2@@std@@U?$hash@V?$basic_string@DU?$char_traits@D@std@@V?$allocator@D@2@@std@@@2@U?$equal_to@V?$basic_string@DU?$char_traits@D@std@@V?$allocator@D@2@@std@@@2@@2@V?$allocator@U?$pair@$$CBV?$basic_string@DU?$char_traits@D@std@@V?$allocator@D@2@@std@@V?$unique_ptr@VValue@Json@@U?$default_delete@VValue@Json@@@std@@@2@@std@@@2@$0A@@std@@@std@@AEBAPEAU?$_List_node@U?$pair@$$CBV?$basic_string@DU?$char_traits@D@std@@V?$allocator@D@2@@std@@V?$unique_ptr@VValue@Json@@U?$default_delete@VValue@Json@@@std@@@2@@std@@PEAX@1@AEBV?$basic_string@DU?$char_traits@D@std@@V?$allocator@D@2@@1@_K@Z ; std::_Hash<std::_Umap_traits<std::basic_string<char,std::char_traits<char>,std::allocator<char> >,std::unique_ptr<Json::Value,std::default_delete<Json::Value> >,std::_Uhash_compare<std::basic_string<char,std::char_traits<char>,std::allocator<char> >,std::hash<std::basic_string<char,std::char_traits<char>,std::allocator<char> > >,std::equal_to<std::basic_string<char,std::char_traits<char>,std::allocator<char> > > >,std::allocator<std::pair<std::basic_string<char,std::char_traits<char>,std::allocator<char> > const ,std::unique_ptr<Json::Value,std::default_delete<Json::Value> > > >,0> >::_Find<std::basic_string<char,std::char_traits<char>,std::allocator<char> > >
PUBLIC	??$_Construct_in_place@PEAU?$_List_node@U?$pair@$$CBV?$basic_string@DU?$char_traits@D@std@@V?$allocator@D@2@@std@@V?$unique_ptr@VValue@Json@@U?$default_delete@VValue@Json@@@std@@@2@@std@@PEAX@std@@AEAPEAU12@@std@@YAXAEAPEAU?$_List_node@U?$pair@$$CBV?$basic_string@DU?$char_traits@D@std@@V?$allocator@D@2@@std@@V?$unique_ptr@VValue@Json@@U?$default_delete@VValue@Json@@@std@@@2@@std@@PEAX@0@0@Z ; std::_Construct_in_place<std::_List_node<std::pair<std::basic_string<char,std::char_traits<char>,std::allocator<char> > const ,std::unique_ptr<Json::Value,std::default_delete<Json::Value> > >,void *> *,std::_List_node<std::pair<std::basic_string<char,std::char_traits<char>,std::allocator<char> > const ,std::unique_ptr<Json::Value,std::default_delete<Json::Value> > >,void *> * &>
PUBLIC	??$_Get_size_of_n@$07@std@@YA_K_K@Z		; std::_Get_size_of_n<8>
PUBLIC	??$exchange@PEAVString@Json@@$$T@std@@YAPEAVString@Json@@AEAPEAV12@$$QEA$$T@Z ; std::exchange<Json::String *,std::nullptr_t>
PUBLIC	??$_Allocate_manually_vector_aligned@U_Default_allocate_traits@std@@@std@@YAPEAX_K@Z ; std::_Allocate_manually_vector_aligned<std::_Default_allocate_traits>
PUBLIC	??$_Emplace_back@AEBV?$_List_unchecked_iterator@V?$_List_val@U?$_List_simple_types@U?$pair@$$CBV?$basic_string@DU?$char_traits@D@std@@V?$allocator@D@2@@std@@V?$unique_ptr@VValue@Json@@U?$default_delete@VValue@Json@@@std@@@2@@std@@@std@@@std@@@std@@@?$_Uninitialized_backout@PEAV?$_List_unchecked_iterator@V?$_List_val@U?$_List_simple_types@U?$pair@$$CBV?$basic_string@DU?$char_traits@D@std@@V?$allocator@D@2@@std@@V?$unique_ptr@VValue@Json@@U?$default_delete@VValue@Json@@@std@@@2@@std@@@std@@@std@@@std@@@std@@QEAAXAEBV?$_List_unchecked_iterator@V?$_List_val@U?$_List_simple_types@U?$pair@$$CBV?$basic_string@DU?$char_traits@D@std@@V?$allocator@D@2@@std@@V?$unique_ptr@VValue@Json@@U?$default_delete@VValue@Json@@@std@@@2@@std@@@std@@@std@@@1@@Z ; std::_Uninitialized_backout<std::_List_unchecked_iterator<std::_List_val<std::_List_simple_types<std::pair<std::basic_string<char,std::char_traits<char>,std::allocator<char> > const ,std::unique_ptr<Json::Value,std::default_delete<Json::Value> > > > > > *>::_Emplace_back<std::_List_unchecked_iterator<std::_List_val<std::_List_simple_types<std::pair<std::basic_string<char,std::char_traits<char>,std::allocator<char> > const ,std::unique_ptr<Json::Value,std::default_delete<Json::Value> > > > > > const &>
PUBLIC	??$_Adl_verify_range@PEAV?$_List_unchecked_iterator@V?$_List_val@U?$_List_simple_types@U?$pair@$$CBV?$basic_string@DU?$char_traits@D@std@@V?$allocator@D@2@@std@@V?$unique_ptr@VValue@Json@@U?$default_delete@VValue@Json@@@std@@@2@@std@@@std@@@std@@@std@@PEAV12@@std@@YAXAEBQEAV?$_List_unchecked_iterator@V?$_List_val@U?$_List_simple_types@U?$pair@$$CBV?$basic_string@DU?$char_traits@D@std@@V?$allocator@D@2@@std@@V?$unique_ptr@VValue@Json@@U?$default_delete@VValue@Json@@@std@@@2@@std@@@std@@@std@@@0@0@Z ; std::_Adl_verify_range<std::_List_unchecked_iterator<std::_List_val<std::_List_simple_types<std::pair<std::basic_string<char,std::char_traits<char>,std::allocator<char> > const ,std::unique_ptr<Json::Value,std::default_delete<Json::Value> > > > > > *,std::_List_unchecked_iterator<std::_List_val<std::_List_simple_types<std::pair<std::basic_string<char,std::char_traits<char>,std::allocator<char> > const ,std::unique_ptr<Json::Value,std::default_delete<Json::Value> > > > > > *>
PUBLIC	??$destroy_at@V?$unique_ptr@VValue@Json@@U?$default_delete@VValue@Json@@@std@@@std@@@std@@YAXQEAV?$unique_ptr@VValue@Json@@U?$default_delete@VValue@Json@@@std@@@0@@Z ; std::destroy_at<std::unique_ptr<Json::Value,std::default_delete<Json::Value> > >
PUBLIC	??$destroy@U?$pair@$$CBV?$basic_string@DU?$char_traits@D@std@@V?$allocator@D@2@@std@@V?$unique_ptr@VValue@Json@@U?$default_delete@VValue@Json@@@std@@@2@@std@@@?$_Default_allocator_traits@V?$allocator@U?$_List_node@U?$pair@$$CBV?$basic_string@DU?$char_traits@D@std@@V?$allocator@D@2@@std@@V?$unique_ptr@VValue@Json@@U?$default_delete@VValue@Json@@@std@@@2@@std@@PEAX@std@@@std@@@std@@SAXAEAV?$allocator@U?$_List_node@U?$pair@$$CBV?$basic_string@DU?$char_traits@D@std@@V?$allocator@D@2@@std@@V?$unique_ptr@VValue@Json@@U?$default_delete@VValue@Json@@@std@@@2@@std@@PEAX@std@@@1@QEAU?$pair@$$CBV?$basic_string@DU?$char_traits@D@std@@V?$allocator@D@2@@std@@V?$unique_ptr@VValue@Json@@U?$default_delete@VValue@Json@@@std@@@2@@1@@Z ; std::_Default_allocator_traits<std::allocator<std::_List_node<std::pair<std::basic_string<char,std::char_traits<char>,std::allocator<char> > const ,std::unique_ptr<Json::Value,std::default_delete<Json::Value> > >,void *> > >::destroy<std::pair<std::basic_string<char,std::char_traits<char>,std::allocator<char> > const ,std::unique_ptr<Json::Value,std::default_delete<Json::Value> > > >
PUBLIC	??$addressof@U?$pair@$$CBV?$basic_string@DU?$char_traits@D@std@@V?$allocator@D@2@@std@@V?$unique_ptr@VValue@Json@@U?$default_delete@VValue@Json@@@std@@@2@@std@@@std@@YAPEAU?$pair@$$CBV?$basic_string@DU?$char_traits@D@std@@V?$allocator@D@2@@std@@V?$unique_ptr@VValue@Json@@U?$default_delete@VValue@Json@@@std@@@2@@0@AEAU10@@Z ; std::addressof<std::pair<std::basic_string<char,std::char_traits<char>,std::allocator<char> > const ,std::unique_ptr<Json::Value,std::default_delete<Json::Value> > > >
PUBLIC	??$_Uninitialized_move@PEAV?$unique_ptr@VValue@Json@@U?$default_delete@VValue@Json@@@std@@@std@@V?$allocator@V?$unique_ptr@VValue@Json@@U?$default_delete@VValue@Json@@@std@@@std@@@2@@std@@YAPEAV?$unique_ptr@VValue@Json@@U?$default_delete@VValue@Json@@@std@@@0@QEAV10@0PEAV10@AEAV?$allocator@V?$unique_ptr@VValue@Json@@U?$default_delete@VValue@Json@@@std@@@std@@@0@@Z ; std::_Uninitialized_move<std::unique_ptr<Json::Value,std::default_delete<Json::Value> > *,std::allocator<std::unique_ptr<Json::Value,std::default_delete<Json::Value> > > >
PUBLIC	??$_Get_unwrapped@AEBQEAV?$unique_ptr@VValue@Json@@U?$default_delete@VValue@Json@@@std@@@std@@@std@@YA?A_TAEBQEAV?$unique_ptr@VValue@Json@@U?$default_delete@VValue@Json@@@std@@@0@@Z ; std::_Get_unwrapped<std::unique_ptr<Json::Value,std::default_delete<Json::Value> > * const &>
PUBLIC	??$construct@V?$unique_ptr@VValue@Json@@U?$default_delete@VValue@Json@@@std@@@std@@V12@@?$_Default_allocator_traits@V?$allocator@V?$unique_ptr@VValue@Json@@U?$default_delete@VValue@Json@@@std@@@std@@@std@@@std@@SAXAEAV?$allocator@V?$unique_ptr@VValue@Json@@U?$default_delete@VValue@Json@@@std@@@std@@@1@QEAV?$unique_ptr@VValue@Json@@U?$default_delete@VValue@Json@@@std@@@1@$$QEAV31@@Z ; std::_Default_allocator_traits<std::allocator<std::unique_ptr<Json::Value,std::default_delete<Json::Value> > > >::construct<std::unique_ptr<Json::Value,std::default_delete<Json::Value> >,std::unique_ptr<Json::Value,std::default_delete<Json::Value> > >
PUBLIC	??$_Allocate_at_least_helper@V?$allocator@V?$unique_ptr@VValue@Json@@U?$default_delete@VValue@Json@@@std@@@std@@@std@@@std@@YAPEAV?$unique_ptr@VValue@Json@@U?$default_delete@VValue@Json@@@std@@@0@AEAV?$allocator@V?$unique_ptr@VValue@Json@@U?$default_delete@VValue@Json@@@std@@@std@@@0@AEA_K@Z ; std::_Allocate_at_least_helper<std::allocator<std::unique_ptr<Json::Value,std::default_delete<Json::Value> > > >
PUBLIC	??$_Construct_in_place@V?$unique_ptr@VValue@Json@@U?$default_delete@VValue@Json@@@std@@@std@@V12@@std@@YAXAEAV?$unique_ptr@VValue@Json@@U?$default_delete@VValue@Json@@@std@@@0@$$QEAV10@@Z ; std::_Construct_in_place<std::unique_ptr<Json::Value,std::default_delete<Json::Value> >,std::unique_ptr<Json::Value,std::default_delete<Json::Value> > >
PUBLIC	??$forward@PEAVString@Json@@@std@@YA$$QEAPEAVString@Json@@AEAPEAV12@@Z ; std::forward<Json::String *>
PUBLIC	??$?0U?$default_delete@VNumber@Json@@@std@@PEAVNumber@Json@@@?$_Compressed_pair@U?$default_delete@VValue@Json@@@std@@PEAVValue@Json@@$00@std@@QEAA@U_One_then_variadic_args_t@1@$$QEAU?$default_delete@VNumber@Json@@@1@$$QEAPEAVNumber@Json@@@Z ; std::_Compressed_pair<std::default_delete<Json::Value>,Json::Value *,1>::_Compressed_pair<std::default_delete<Json::Value>,Json::Value *,1><std::default_delete<Json::Number>,Json::Number *>
PUBLIC	??$forward@U?$default_delete@VNumber@Json@@@std@@@std@@YA$$QEAU?$default_delete@VNumber@Json@@@0@AEAU10@@Z ; std::forward<std::default_delete<Json::Number> >
PUBLIC	??$?0U?$default_delete@VNumber@Json@@@std@@$0A@@?$unique_ptr@VNumber@Json@@U?$default_delete@VNumber@Json@@@std@@@std@@QEAA@PEAVNumber@Json@@@Z ; std::unique_ptr<Json::Number,std::default_delete<Json::Number> >::unique_ptr<Json::Number,std::default_delete<Json::Number> ><std::default_delete<Json::Number>,0>
PUBLIC	??$forward@N@std@@YA$$QEANAEAN@Z		; std::forward<double>
PUBLIC	??$?0U?$default_delete@VNull@Json@@@std@@PEAVNull@Json@@@?$_Compressed_pair@U?$default_delete@VValue@Json@@@std@@PEAVValue@Json@@$00@std@@QEAA@U_One_then_variadic_args_t@1@$$QEAU?$default_delete@VNull@Json@@@1@$$QEAPEAVNull@Json@@@Z ; std::_Compressed_pair<std::default_delete<Json::Value>,Json::Value *,1>::_Compressed_pair<std::default_delete<Json::Value>,Json::Value *,1><std::default_delete<Json::Null>,Json::Null *>
PUBLIC	??$forward@U?$default_delete@VNull@Json@@@std@@@std@@YA$$QEAU?$default_delete@VNull@Json@@@0@AEAU10@@Z ; std::forward<std::default_delete<Json::Null> >
PUBLIC	??$?0U?$default_delete@VNull@Json@@@std@@$0A@@?$unique_ptr@VNull@Json@@U?$default_delete@VNull@Json@@@std@@@std@@QEAA@PEAVNull@Json@@@Z ; std::unique_ptr<Json::Null,std::default_delete<Json::Null> >::unique_ptr<Json::Null,std::default_delete<Json::Null> ><std::default_delete<Json::Null>,0>
PUBLIC	??$?0U?$default_delete@VBool@Json@@@std@@PEAVBool@Json@@@?$_Compressed_pair@U?$default_delete@VValue@Json@@@std@@PEAVValue@Json@@$00@std@@QEAA@U_One_then_variadic_args_t@1@$$QEAU?$default_delete@VBool@Json@@@1@$$QEAPEAVBool@Json@@@Z ; std::_Compressed_pair<std::default_delete<Json::Value>,Json::Value *,1>::_Compressed_pair<std::default_delete<Json::Value>,Json::Value *,1><std::default_delete<Json::Bool>,Json::Bool *>
PUBLIC	??$forward@U?$default_delete@VBool@Json@@@std@@@std@@YA$$QEAU?$default_delete@VBool@Json@@@0@AEAU10@@Z ; std::forward<std::default_delete<Json::Bool> >
PUBLIC	??$?0U?$default_delete@VBool@Json@@@std@@$0A@@?$unique_ptr@VBool@Json@@U?$default_delete@VBool@Json@@@std@@@std@@QEAA@PEAVBool@Json@@@Z ; std::unique_ptr<Json::Bool,std::default_delete<Json::Bool> >::unique_ptr<Json::Bool,std::default_delete<Json::Bool> ><std::default_delete<Json::Bool>,0>
PUBLIC	??$forward@_N@std@@YA$$QEA_NAEA_N@Z		; std::forward<bool>
PUBLIC	??$?0AEAPEAVString@Json@@@?$_Compressed_pair@U?$default_delete@VString@Json@@@std@@PEAVString@Json@@$00@std@@QEAA@U_Zero_then_variadic_args_t@1@AEAPEAVString@Json@@@Z ; std::_Compressed_pair<std::default_delete<Json::String>,Json::String *,1>::_Compressed_pair<std::default_delete<Json::String>,Json::String *,1><Json::String * &>
PUBLIC	??$?0U?$default_delete@VArray@Json@@@std@@PEAVArray@Json@@@?$_Compressed_pair@U?$default_delete@VValue@Json@@@std@@PEAVValue@Json@@$00@std@@QEAA@U_One_then_variadic_args_t@1@$$QEAU?$default_delete@VArray@Json@@@1@$$QEAPEAVArray@Json@@@Z ; std::_Compressed_pair<std::default_delete<Json::Value>,Json::Value *,1>::_Compressed_pair<std::default_delete<Json::Value>,Json::Value *,1><std::default_delete<Json::Array>,Json::Array *>
PUBLIC	??$forward@U?$default_delete@VArray@Json@@@std@@@std@@YA$$QEAU?$default_delete@VArray@Json@@@0@AEAU10@@Z ; std::forward<std::default_delete<Json::Array> >
PUBLIC	??$?0U?$default_delete@VArray@Json@@@std@@$0A@@?$unique_ptr@VArray@Json@@U?$default_delete@VArray@Json@@@std@@@std@@QEAA@PEAVArray@Json@@@Z ; std::unique_ptr<Json::Array,std::default_delete<Json::Array> >::unique_ptr<Json::Array,std::default_delete<Json::Array> ><std::default_delete<Json::Array>,0>
PUBLIC	??$?0U?$default_delete@VObject@Json@@@std@@PEAVObject@Json@@@?$_Compressed_pair@U?$default_delete@VValue@Json@@@std@@PEAVValue@Json@@$00@std@@QEAA@U_One_then_variadic_args_t@1@$$QEAU?$default_delete@VObject@Json@@@1@$$QEAPEAVObject@Json@@@Z ; std::_Compressed_pair<std::default_delete<Json::Value>,Json::Value *,1>::_Compressed_pair<std::default_delete<Json::Value>,Json::Value *,1><std::default_delete<Json::Object>,Json::Object *>
PUBLIC	??$forward@U?$default_delete@VObject@Json@@@std@@@std@@YA$$QEAU?$default_delete@VObject@Json@@@0@AEAU10@@Z ; std::forward<std::default_delete<Json::Object> >
PUBLIC	??$?0V?$_List_iterator@V?$_List_val@U?$_List_simple_types@U?$pair@$$CBV?$basic_string@DU?$char_traits@D@std@@V?$allocator@D@2@@std@@V?$unique_ptr@VValue@Json@@U?$default_delete@VValue@Json@@@std@@@2@@std@@@std@@@std@@@std@@_N$0A@@?$pair@V?$_List_iterator@V?$_List_val@U?$_List_simple_types@U?$pair@$$CBV?$basic_string@DU?$char_traits@D@std@@V?$allocator@D@2@@std@@V?$unique_ptr@VValue@Json@@U?$default_delete@VValue@Json@@@std@@@2@@std@@@std@@@std@@@std@@_N@std@@QEAA@$$QEAV?$_List_iterator@V?$_List_val@U?$_List_simple_types@U?$pair@$$CBV?$basic_string@DU?$char_traits@D@std@@V?$allocator@D@2@@std@@V?$unique_ptr@VValue@Json@@U?$default_delete@VValue@Json@@@std@@@2@@std@@@std@@@std@@@1@$$QEA_N@Z ; std::pair<std::_List_iterator<std::_List_val<std::_List_simple_types<std::pair<std::basic_string<char,std::char_traits<char>,std::allocator<char> > const ,std::unique_ptr<Json::Value,std::default_delete<Json::Value> > > > > >,bool>::pair<std::_List_iterator<std::_List_val<std::_List_simple_types<std::pair<std::basic_string<char,std::char_traits<char>,std::allocator<char> > const ,std::unique_ptr<Json::Value,std::default_delete<Json::Value> > > > > >,bool><std::_List_iterator<std::_List_val<std::_List_simple_types<std::pair<std::basic_string<char,std::char_traits<char>,std::allocator<char> > const ,std::unique_ptr<Json::Value,std::default_delete<Json::Value> > > > > >,bool,0>
PUBLIC	??$_Kfn@$$CBV?$basic_string@DU?$char_traits@D@std@@V?$allocator@D@2@@std@@V?$unique_ptr@VValue@Json@@U?$default_delete@VValue@Json@@@std@@@2@@?$_Umap_traits@V?$basic_string@DU?$char_traits@D@std@@V?$allocator@D@2@@std@@V?$unique_ptr@VValue@Json@@U?$default_delete@VValue@Json@@@std@@@2@V?$_Uhash_compare@V?$basic_string@DU?$char_traits@D@std@@V?$allocator@D@2@@std@@U?$hash@V?$basic_string@DU?$char_traits@D@std@@V?$allocator@D@2@@std@@@2@U?$equal_to@V?$basic_string@DU?$char_traits@D@std@@V?$allocator@D@2@@std@@@2@@2@V?$allocator@U?$pair@$$CBV?$basic_string@DU?$char_traits@D@std@@V?$allocator@D@2@@std@@V?$unique_ptr@VValue@Json@@U?$default_delete@VValue@Json@@@std@@@2@@std@@@2@$0A@@std@@SAAEBV?$basic_string@DU?$char_traits@D@std@@V?$allocator@D@2@@1@AEBU?$pair@$$CBV?$basic_string@DU?$char_traits@D@std@@V?$allocator@D@2@@std@@V?$unique_ptr@VValue@Json@@U?$default_delete@VValue@Json@@@std@@@2@@1@@Z ; std::_Umap_traits<std::basic_string<char,std::char_traits<char>,std::allocator<char> >,std::unique_ptr<Json::Value,std::default_delete<Json::Value> >,std::_Uhash_compare<std::basic_string<char,std::char_traits<char>,std::allocator<char> >,std::hash<std::basic_string<char,std::char_traits<char>,std::allocator<char> > >,std::equal_to<std::basic_string<char,std::char_traits<char>,std::allocator<char> > > >,std::allocator<std::pair<std::basic_string<char,std::char_traits<char>,std::allocator<char> > const ,std::unique_ptr<Json::Value,std::default_delete<Json::Value> > > >,0>::_Kfn<std::basic_string<char,std::char_traits<char>,std::allocator<char> > const ,std::unique_ptr<Json::Value,std::default_delete<Json::Value> > >
PUBLIC	??$?0V?$basic_string@DU?$char_traits@D@std@@V?$allocator@D@2@@std@@V?$unique_ptr@VValue@Json@@U?$default_delete@VValue@Json@@@std@@@1@@?$_List_node_emplace_op2@V?$allocator@U?$_List_node@U?$pair@$$CBV?$basic_string@DU?$char_traits@D@std@@V?$allocator@D@2@@std@@V?$unique_ptr@VValue@Json@@U?$default_delete@VValue@Json@@@std@@@2@@std@@PEAX@std@@@std@@@std@@QEAA@AEAV?$allocator@U?$_List_node@U?$pair@$$CBV?$basic_string@DU?$char_traits@D@std@@V?$allocator@D@2@@std@@V?$unique_ptr@VValue@Json@@U?$default_delete@VValue@Json@@@std@@@2@@std@@PEAX@std@@@1@$$QEAV?$basic_string@DU?$char_traits@D@std@@V?$allocator@D@2@@1@$$QEAV?$unique_ptr@VValue@Json@@U?$default_delete@VValue@Json@@@std@@@1@@Z ; std::_List_node_emplace_op2<std::allocator<std::_List_node<std::pair<std::basic_string<char,std::char_traits<char>,std::allocator<char> > const ,std::unique_ptr<Json::Value,std::default_delete<Json::Value> > >,void *> > >::_List_node_emplace_op2<std::allocator<std::_List_node<std::pair<std::basic_string<char,std::char_traits<char>,std::allocator<char> > const ,std::unique_ptr<Json::Value,std::default_delete<Json::Value> > >,void *> > ><std::basic_string<char,std::char_traits<char>,std::allocator<char> >,std::unique_ptr<Json::Value,std::default_delete<Json::Value> > >
PUBLIC	??$_Find_last@V?$basic_string@DU?$char_traits@D@std@@V?$allocator@D@2@@std@@@?$_Hash@V?$_Umap_traits@V?$basic_string@DU?$char_traits@D@std@@V?$allocator@D@2@@std@@V?$unique_ptr@VValue@Json@@U?$default_delete@VValue@Json@@@std@@@2@V?$_Uhash_compare@V?$basic_string@DU?$char_traits@D@std@@V?$allocator@D@2@@std@@U?$hash@V?$basic_string@DU?$char_traits@D@std@@V?$allocator@D@2@@std@@@2@U?$equal_to@V?$basic_string@DU?$char_traits@D@std@@V?$allocator@D@2@@std@@@2@@2@V?$allocator@U?$pair@$$CBV?$basic_string@DU?$char_traits@D@std@@V?$allocator@D@2@@std@@V?$unique_ptr@VValue@Json@@U?$default_delete@VValue@Json@@@std@@@2@@std@@@2@$0A@@std@@@std@@IEBA?AU?$_Hash_find_last_result@PEAU?$_List_node@U?$pair@$$CBV?$basic_string@DU?$char_traits@D@std@@V?$allocator@D@2@@std@@V?$unique_ptr@VValue@Json@@U?$default_delete@VValue@Json@@@std@@@2@@std@@PEAX@std@@@1@AEBV?$basic_string@DU?$char_traits@D@std@@V?$allocator@D@2@@1@_K@Z ; std::_Hash<std::_Umap_traits<std::basic_string<char,std::char_traits<char>,std::allocator<char> >,std::unique_ptr<Json::Value,std::default_delete<Json::Value> >,std::_Uhash_compare<std::basic_string<char,std::char_traits<char>,std::allocator<char> >,std::hash<std::basic_string<char,std::char_traits<char>,std::allocator<char> > >,std::equal_to<std::basic_string<char,std::char_traits<char>,std::allocator<char> > > >,std::allocator<std::pair<std::basic_string<char,std::char_traits<char>,std::allocator<char> > const ,std::unique_ptr<Json::Value,std::default_delete<Json::Value> > > >,0> >::_Find_last<std::basic_string<char,std::char_traits<char>,std::allocator<char> > >
PUBLIC	??$?RV?$basic_string@DU?$char_traits@D@std@@V?$allocator@D@2@@std@@@?$_Uhash_compare@V?$basic_string@DU?$char_traits@D@std@@V?$allocator@D@2@@std@@U?$hash@V?$basic_string@DU?$char_traits@D@std@@V?$allocator@D@2@@std@@@2@U?$equal_to@V?$basic_string@DU?$char_traits@D@std@@V?$allocator@D@2@@std@@@2@@std@@QEBA_KAEBV?$basic_string@DU?$char_traits@D@std@@V?$allocator@D@2@@1@@Z ; std::_Uhash_compare<std::basic_string<char,std::char_traits<char>,std::allocator<char> >,std::hash<std::basic_string<char,std::char_traits<char>,std::allocator<char> > >,std::equal_to<std::basic_string<char,std::char_traits<char>,std::allocator<char> > > >::operator()<std::basic_string<char,std::char_traits<char>,std::allocator<char> > >
PUBLIC	??$?0U?$default_delete@VObject@Json@@@std@@$0A@@?$unique_ptr@VObject@Json@@U?$default_delete@VObject@Json@@@std@@@std@@QEAA@PEAVObject@Json@@@Z ; std::unique_ptr<Json::Object,std::default_delete<Json::Object> >::unique_ptr<Json::Object,std::default_delete<Json::Object> ><std::default_delete<Json::Object>,0>
PUBLIC	??$?0U?$pair@$$CBV?$basic_string@DU?$char_traits@D@std@@V?$allocator@D@2@@std@@V?$unique_ptr@VValue@Json@@U?$default_delete@VValue@Json@@@std@@@2@@std@@@?$allocator@U?$_List_node@U?$pair@$$CBV?$basic_string@DU?$char_traits@D@std@@V?$allocator@D@2@@std@@V?$unique_ptr@VValue@Json@@U?$default_delete@VValue@Json@@@std@@@2@@std@@PEAX@std@@@std@@QEAA@AEBV?$allocator@U?$pair@$$CBV?$basic_string@DU?$char_traits@D@std@@V?$allocator@D@2@@std@@V?$unique_ptr@VValue@Json@@U?$default_delete@VValue@Json@@@std@@@2@@std@@@1@@Z ; std::allocator<std::_List_node<std::pair<std::basic_string<char,std::char_traits<char>,std::allocator<char> > const ,std::unique_ptr<Json::Value,std::default_delete<Json::Value> > >,void *> >::allocator<std::_List_node<std::pair<std::basic_string<char,std::char_traits<char>,std::allocator<char> > const ,std::unique_ptr<Json::Value,std::default_delete<Json::Value> > >,void *> ><std::pair<std::basic_string<char,std::char_traits<char>,std::allocator<char> > const ,std::unique_ptr<Json::Value,std::default_delete<Json::Value> > > >
PUBLIC	??$?0U?$pair@$$CBV?$basic_string@DU?$char_traits@D@std@@V?$allocator@D@2@@std@@V?$unique_ptr@VValue@Json@@U?$default_delete@VValue@Json@@@std@@@2@@std@@@?$allocator@V?$_List_unchecked_iterator@V?$_List_val@U?$_List_simple_types@U?$pair@$$CBV?$basic_string@DU?$char_traits@D@std@@V?$allocator@D@2@@std@@V?$unique_ptr@VValue@Json@@U?$default_delete@VValue@Json@@@std@@@2@@std@@@std@@@std@@@std@@@std@@QEAA@AEBV?$allocator@U?$pair@$$CBV?$basic_string@DU?$char_traits@D@std@@V?$allocator@D@2@@std@@V?$unique_ptr@VValue@Json@@U?$default_delete@VValue@Json@@@std@@@2@@std@@@1@@Z ; std::allocator<std::_List_unchecked_iterator<std::_List_val<std::_List_simple_types<std::pair<std::basic_string<char,std::char_traits<char>,std::allocator<char> > const ,std::unique_ptr<Json::Value,std::default_delete<Json::Value> > > > > > >::allocator<std::_List_unchecked_iterator<std::_List_val<std::_List_simple_types<std::pair<std::basic_string<char,std::char_traits<char>,std::allocator<char> > const ,std::unique_ptr<Json::Value,std::default_delete<Json::Value> > > > > > ><std::pair<std::basic_string<char,std::char_traits<char>,std::allocator<char> > const ,std::unique_ptr<Json::Value,std::default_delete<Json::Value> > > >
PUBLIC	??$?0VString@Json@@$0A@@?$default_delete@VValue@Json@@@std@@QEAA@AEBU?$default_delete@VString@Json@@@1@@Z ; std::default_delete<Json::Value>::default_delete<Json::Value><Json::String,0>
PUBLIC	?__autoclassinit2@Array@Json@@QEAAX_K@Z		; Json::Array::__autoclassinit2
PUBLIC	?__autoclassinit2@Object@Json@@QEAAX_K@Z	; Json::Object::__autoclassinit2
PUBLIC	?deallocate@?$allocator@D@std@@QEAAXQEAD_K@Z	; std::allocator<char>::deallocate
PUBLIC	??R<lambda_1>@?1??reserve@?$basic_string@DU?$char_traits@D@std@@V?$allocator@D@2@@std@@QEAAX_K@Z@QEBA@QEADQEBD0@Z ; `std::basic_string<char,std::char_traits<char>,std::allocator<char> >::reserve'::`2'::<lambda_1>::operator()
PUBLIC	?reserve@?$basic_string@DU?$char_traits@D@std@@V?$allocator@D@2@@std@@QEAAX_K@Z ; std::basic_string<char,std::char_traits<char>,std::allocator<char> >::reserve
PUBLIC	?_Calculate_growth@?$basic_string@DU?$char_traits@D@std@@V?$allocator@D@2@@std@@AEBA_K_K@Z ; std::basic_string<char,std::char_traits<char>,std::allocator<char> >::_Calculate_growth
PUBLIC	?_Check_offset@?$_String_val@U?$_Simple_types@D@std@@@std@@QEBAX_K@Z ; std::_String_val<std::_Simple_types<char> >::_Check_offset
PUBLIC	??0?$_Vector_val@U?$_Simple_types@V?$unique_ptr@VValue@Json@@U?$default_delete@VValue@Json@@@std@@@std@@@std@@@std@@QEAA@PEAV?$unique_ptr@VValue@Json@@U?$default_delete@VValue@Json@@@std@@@1@00@Z ; std::_Vector_val<std::_Simple_types<std::unique_ptr<Json::Value,std::default_delete<Json::Value> > > >::_Vector_val<std::_Simple_types<std::unique_ptr<Json::Value,std::default_delete<Json::Value> > > >
PUBLIC	?_Get_first@?$_Compressed_pair@V?$allocator@V?$unique_ptr@VValue@Json@@U?$default_delete@VValue@Json@@@std@@@std@@@std@@V?$_Vector_val@U?$_Simple_types@V?$unique_ptr@VValue@Json@@U?$default_delete@VValue@Json@@@std@@@std@@@std@@@2@$00@std@@QEAAAEAV?$allocator@V?$unique_ptr@VValue@Json@@U?$default_delete@VValue@Json@@@std@@@std@@@2@XZ ; std::_Compressed_pair<std::allocator<std::unique_ptr<Json::Value,std::default_delete<Json::Value> > >,std::_Vector_val<std::_Simple_types<std::unique_ptr<Json::Value,std::default_delete<Json::Value> > > >,1>::_Get_first
PUBLIC	?_Get_max_bucket_size@?$_Uhash_compare@V?$basic_string@DU?$char_traits@D@std@@V?$allocator@D@2@@std@@U?$hash@V?$basic_string@DU?$char_traits@D@std@@V?$allocator@D@2@@std@@@2@U?$equal_to@V?$basic_string@DU?$char_traits@D@std@@V?$allocator@D@2@@std@@@2@@std@@QEAAAEAMXZ ; std::_Uhash_compare<std::basic_string<char,std::char_traits<char>,std::allocator<char> >,std::hash<std::basic_string<char,std::char_traits<char>,std::allocator<char> > >,std::equal_to<std::basic_string<char,std::char_traits<char>,std::allocator<char> > > >::_Get_max_bucket_size
PUBLIC	?end@?$_Hash@V?$_Umap_traits@V?$basic_string@DU?$char_traits@D@std@@V?$allocator@D@2@@std@@V?$unique_ptr@VValue@Json@@U?$default_delete@VValue@Json@@@std@@@2@V?$_Uhash_compare@V?$basic_string@DU?$char_traits@D@std@@V?$allocator@D@2@@std@@U?$hash@V?$basic_string@DU?$char_traits@D@std@@V?$allocator@D@2@@std@@@2@U?$equal_to@V?$basic_string@DU?$char_traits@D@std@@V?$allocator@D@2@@std@@@2@@2@V?$allocator@U?$pair@$$CBV?$basic_string@DU?$char_traits@D@std@@V?$allocator@D@2@@std@@V?$unique_ptr@VValue@Json@@U?$default_delete@VValue@Json@@@std@@@2@@std@@@2@$0A@@std@@@std@@QEAA?AV?$_List_iterator@V?$_List_val@U?$_List_simple_types@U?$pair@$$CBV?$basic_string@DU?$char_traits@D@std@@V?$allocator@D@2@@std@@V?$unique_ptr@VValue@Json@@U?$default_delete@VValue@Json@@@std@@@2@@std@@@std@@@std@@@2@XZ ; std::_Hash<std::_Umap_traits<std::basic_string<char,std::char_traits<char>,std::allocator<char> >,std::unique_ptr<Json::Value,std::default_delete<Json::Value> >,std::_Uhash_compare<std::basic_string<char,std::char_traits<char>,std::allocator<char> >,std::hash<std::basic_string<char,std::char_traits<char>,std::allocator<char> > >,std::equal_to<std::basic_string<char,std::char_traits<char>,std::allocator<char> > > >,std::allocator<std::pair<std::basic_string<char,std::char_traits<char>,std::allocator<char> > const ,std::unique_ptr<Json::Value,std::default_delete<Json::Value> > > >,0> >::end
PUBLIC	?find@?$_Hash@V?$_Umap_traits@V?$basic_string@DU?$char_traits@D@std@@V?$allocator@D@2@@std@@V?$unique_ptr@VValue@Json@@U?$default_delete@VValue@Json@@@std@@@2@V?$_Uhash_compare@V?$basic_string@DU?$char_traits@D@std@@V?$allocator@D@2@@std@@U?$hash@V?$basic_string@DU?$char_traits@D@std@@V?$allocator@D@2@@std@@@2@U?$equal_to@V?$basic_string@DU?$char_traits@D@std@@V?$allocator@D@2@@std@@@2@@2@V?$allocator@U?$pair@$$CBV?$basic_string@DU?$char_traits@D@std@@V?$allocator@D@2@@std@@V?$unique_ptr@VValue@Json@@U?$default_delete@VValue@Json@@@std@@@2@@std@@@2@$0A@@std@@@std@@QEAA?AV?$_List_iterator@V?$_List_val@U?$_List_simple_types@U?$pair@$$CBV?$basic_string@DU?$char_traits@D@std@@V?$allocator@D@2@@std@@V?$unique_ptr@VValue@Json@@U?$default_delete@VValue@Json@@@std@@@2@@std@@@std@@@std@@@2@AEBV?$basic_string@DU?$char_traits@D@std@@V?$allocator@D@2@@2@@Z ; std::_Hash<std::_Umap_traits<std::basic_string<char,std::char_traits<char>,std::allocator<char> >,std::unique_ptr<Json::Value,std::default_delete<Json::Value> >,std::_Uhash_compare<std::basic_string<char,std::char_traits<char>,std::allocator<char> >,std::hash<std::basic_string<char,std::char_traits<char>,std::allocator<char> > >,std::equal_to<std::basic_string<char,std::char_traits<char>,std::allocator<char> > > >,std::allocator<std::pair<std::basic_string<char,std::char_traits<char>,std::allocator<char> > const ,std::unique_ptr<Json::Value,std::default_delete<Json::Value> > > >,0> >::find
PUBLIC	?_Alloc_sentinel_and_proxy@?$list@U?$pair@$$CBV?$basic_string@DU?$char_traits@D@std@@V?$allocator@D@2@@std@@V?$unique_ptr@VValue@Json@@U?$default_delete@VValue@Json@@@std@@@2@@std@@V?$allocator@U?$pair@$$CBV?$basic_string@DU?$char_traits@D@std@@V?$allocator@D@2@@std@@V?$unique_ptr@VValue@Json@@U?$default_delete@VValue@Json@@@std@@@2@@std@@@2@@std@@AEAAXXZ ; std::list<std::pair<std::basic_string<char,std::char_traits<char>,std::allocator<char> > const ,std::unique_ptr<Json::Value,std::default_delete<Json::Value> > >,std::allocator<std::pair<std::basic_string<char,std::char_traits<char>,std::allocator<char> > const ,std::unique_ptr<Json::Value,std::default_delete<Json::Value> > > > >::_Alloc_sentinel_and_proxy
PUBLIC	?deallocate@?$_Default_allocator_traits@V?$allocator@U?$_List_node@U?$pair@$$CBV?$basic_string@DU?$char_traits@D@std@@V?$allocator@D@2@@std@@V?$unique_ptr@VValue@Json@@U?$default_delete@VValue@Json@@@std@@@2@@std@@PEAX@std@@@std@@@std@@SAXAEAV?$allocator@U?$_List_node@U?$pair@$$CBV?$basic_string@DU?$char_traits@D@std@@V?$allocator@D@2@@std@@V?$unique_ptr@VValue@Json@@U?$default_delete@VValue@Json@@@std@@@2@@std@@PEAX@std@@@2@QEAU?$_List_node@U?$pair@$$CBV?$basic_string@DU?$char_traits@D@std@@V?$allocator@D@2@@std@@V?$unique_ptr@VValue@Json@@U?$default_delete@VValue@Json@@@std@@@2@@std@@PEAX@2@_K@Z ; std::_Default_allocator_traits<std::allocator<std::_List_node<std::pair<std::basic_string<char,std::char_traits<char>,std::allocator<char> > const ,std::unique_ptr<Json::Value,std::default_delete<Json::Value> > >,void *> > >::deallocate
PUBLIC	??8?$_List_const_iterator@V?$_List_val@U?$_List_simple_types@U?$pair@$$CBV?$basic_string@DU?$char_traits@D@std@@V?$allocator@D@2@@std@@V?$unique_ptr@VValue@Json@@U?$default_delete@VValue@Json@@@std@@@2@@std@@@std@@@std@@@std@@QEBA_NAEBV01@@Z ; std::_List_const_iterator<std::_List_val<std::_List_simple_types<std::pair<std::basic_string<char,std::char_traits<char>,std::allocator<char> > const ,std::unique_ptr<Json::Value,std::default_delete<Json::Value> > > > > >::operator==
PUBLIC	??0?$_List_unchecked_const_iterator@V?$_List_val@U?$_List_simple_types@U?$pair@$$CBV?$basic_string@DU?$char_traits@D@std@@V?$allocator@D@2@@std@@V?$unique_ptr@VValue@Json@@U?$default_delete@VValue@Json@@@std@@@2@@std@@@std@@@std@@U_Iterator_base0@2@@std@@QEAA@PEAU?$_List_node@U?$pair@$$CBV?$basic_string@DU?$char_traits@D@std@@V?$allocator@D@2@@std@@V?$unique_ptr@VValue@Json@@U?$default_delete@VValue@Json@@@std@@@2@@std@@PEAX@1@PEBV?$_List_val@U?$_List_simple_types@U?$pair@$$CBV?$basic_string@DU?$char_traits@D@std@@V?$allocator@D@2@@std@@V?$unique_ptr@VValue@Json@@U?$default_delete@VValue@Json@@@std@@@2@@std@@@std@@@1@@Z ; std::_List_unchecked_const_iterator<std::_List_val<std::_List_simple_types<std::pair<std::basic_string<char,std::char_traits<char>,std::allocator<char> > const ,std::unique_ptr<Json::Value,std::default_delete<Json::Value> > > > >,std::_Iterator_base0>::_List_unchecked_const_iterator<std::_List_val<std::_List_simple_types<std::pair<std::basic_string<char,std::char_traits<char>,std::allocator<char> > const ,std::unique_ptr<Json::Value,std::default_delete<Json::Value> > > > >,std::_Iterator_base0>
PUBLIC	?_Get_first@?$_Compressed_pair@V?$allocator@U?$_List_node@U?$pair@$$CBV?$basic_string@DU?$char_traits@D@std@@V?$allocator@D@2@@std@@V?$unique_ptr@VValue@Json@@U?$default_delete@VValue@Json@@@std@@@2@@std@@PEAX@std@@@std@@V?$_List_val@U?$_List_simple_types@U?$pair@$$CBV?$basic_string@DU?$char_traits@D@std@@V?$allocator@D@2@@std@@V?$unique_ptr@VValue@Json@@U?$default_delete@VValue@Json@@@std@@@2@@std@@@std@@@2@$00@std@@QEAAAEAV?$allocator@U?$_List_node@U?$pair@$$CBV?$basic_string@DU?$char_traits@D@std@@V?$allocator@D@2@@std@@V?$unique_ptr@VValue@Json@@U?$default_delete@VValue@Json@@@std@@@2@@std@@PEAX@std@@@2@XZ ; std::_Compressed_pair<std::allocator<std::_List_node<std::pair<std::basic_string<char,std::char_traits<char>,std::allocator<char> > const ,std::unique_ptr<Json::Value,std::default_delete<Json::Value> > >,void *> >,std::_List_val<std::_List_simple_types<std::pair<std::basic_string<char,std::char_traits<char>,std::allocator<char> > const ,std::unique_ptr<Json::Value,std::default_delete<Json::Value> > > > >,1>::_Get_first
PUBLIC	?allocate@?$allocator@V?$_List_unchecked_iterator@V?$_List_val@U?$_List_simple_types@U?$pair@$$CBV?$basic_string@DU?$char_traits@D@std@@V?$allocator@D@2@@std@@V?$unique_ptr@VValue@Json@@U?$default_delete@VValue@Json@@@std@@@2@@std@@@std@@@std@@@std@@@std@@QEAAPEAV?$_List_unchecked_iterator@V?$_List_val@U?$_List_simple_types@U?$pair@$$CBV?$basic_string@DU?$char_traits@D@std@@V?$allocator@D@2@@std@@V?$unique_ptr@VValue@Json@@U?$default_delete@VValue@Json@@@std@@@2@@std@@@std@@@std@@@2@_K@Z ; std::allocator<std::_List_unchecked_iterator<std::_List_val<std::_List_simple_types<std::pair<std::basic_string<char,std::char_traits<char>,std::allocator<char> > const ,std::unique_ptr<Json::Value,std::default_delete<Json::Value> > > > > > >::allocate
PUBLIC	?size@?$_Hash_vec@V?$allocator@V?$_List_unchecked_iterator@V?$_List_val@U?$_List_simple_types@U?$pair@$$CBV?$basic_string@DU?$char_traits@D@std@@V?$allocator@D@2@@std@@V?$unique_ptr@VValue@Json@@U?$default_delete@VValue@Json@@@std@@@2@@std@@@std@@@std@@@std@@@std@@@std@@QEBA_KXZ ; std::_Hash_vec<std::allocator<std::_List_unchecked_iterator<std::_List_val<std::_List_simple_types<std::pair<std::basic_string<char,std::char_traits<char>,std::allocator<char> > const ,std::unique_ptr<Json::Value,std::default_delete<Json::Value> > > > > > > >::size
PUBLIC	??A?$array@E$03@std@@QEBAAEBE_K@Z		; std::array<unsigned char,4>::operator[]
PUBLIC	??1?$unique_ptr@VArray@Json@@U?$default_delete@VArray@Json@@@std@@@std@@QEAA@XZ ; std::unique_ptr<Json::Array,std::default_delete<Json::Array> >::~unique_ptr<Json::Array,std::default_delete<Json::Array> >
PUBLIC	??C?$unique_ptr@VArray@Json@@U?$default_delete@VArray@Json@@@std@@@std@@QEBAPEAVArray@Json@@XZ ; std::unique_ptr<Json::Array,std::default_delete<Json::Array> >::operator->
PUBLIC	??1?$unique_ptr@VObject@Json@@U?$default_delete@VObject@Json@@@std@@@std@@QEAA@XZ ; std::unique_ptr<Json::Object,std::default_delete<Json::Object> >::~unique_ptr<Json::Object,std::default_delete<Json::Object> >
PUBLIC	??C?$unique_ptr@VObject@Json@@U?$default_delete@VObject@Json@@@std@@@std@@QEBAPEAVObject@Json@@XZ ; std::unique_ptr<Json::Object,std::default_delete<Json::Object> >::operator->
PUBLIC	??R?$default_delete@VString@Json@@@std@@QEBAXPEAVString@Json@@@Z ; std::default_delete<Json::String>::operator()
PUBLIC	?get_deleter@?$unique_ptr@VString@Json@@U?$default_delete@VString@Json@@@std@@@std@@QEAAAEAU?$default_delete@VString@Json@@@2@XZ ; std::unique_ptr<Json::String,std::default_delete<Json::String> >::get_deleter
PUBLIC	?release@?$unique_ptr@VString@Json@@U?$default_delete@VString@Json@@@std@@@std@@QEAAPEAVString@Json@@XZ ; std::unique_ptr<Json::String,std::default_delete<Json::String> >::release
PUBLIC	?_Get_first@?$_Compressed_pair@U?$default_delete@VString@Json@@@std@@PEAVString@Json@@$00@std@@QEAAAEAU?$default_delete@VString@Json@@@2@XZ ; std::_Compressed_pair<std::default_delete<Json::String>,Json::String *,1>::_Get_first
PUBLIC	??1?$unique_ptr@VBool@Json@@U?$default_delete@VBool@Json@@@std@@@std@@QEAA@XZ ; std::unique_ptr<Json::Bool,std::default_delete<Json::Bool> >::~unique_ptr<Json::Bool,std::default_delete<Json::Bool> >
PUBLIC	??1?$unique_ptr@VNull@Json@@U?$default_delete@VNull@Json@@@std@@@std@@QEAA@XZ ; std::unique_ptr<Json::Null,std::default_delete<Json::Null> >::~unique_ptr<Json::Null,std::default_delete<Json::Null> >
PUBLIC	??1?$unique_ptr@VNumber@Json@@U?$default_delete@VNumber@Json@@@std@@@std@@QEAA@XZ ; std::unique_ptr<Json::Number,std::default_delete<Json::Number> >::~unique_ptr<Json::Number,std::default_delete<Json::Number> >
PUBLIC	??$_Allocate@$0BA@U_Default_allocate_traits@std@@@std@@YAPEAX_K@Z ; std::_Allocate<16,std::_Default_allocate_traits>
PUBLIC	??$_Get_size_of_n@$00@std@@YA_K_K@Z		; std::_Get_size_of_n<1>
PUBLIC	??$_Destroy_in_place@PEAD@std@@YAXAEAPEAD@Z	; std::_Destroy_in_place<char *>
PUBLIC	??$?0AEBV?$allocator@U?$pair@$$CBV?$basic_string@DU?$char_traits@D@std@@V?$allocator@D@2@@std@@V?$unique_ptr@VValue@Json@@U?$default_delete@VValue@Json@@@std@@@2@@std@@@std@@$$V@?$_Compressed_pair@V?$allocator@U?$_List_node@U?$pair@$$CBV?$basic_string@DU?$char_traits@D@std@@V?$allocator@D@2@@std@@V?$unique_ptr@VValue@Json@@U?$default_delete@VValue@Json@@@std@@@2@@std@@PEAX@std@@@std@@V?$_List_val@U?$_List_simple_types@U?$pair@$$CBV?$basic_string@DU?$char_traits@D@std@@V?$allocator@D@2@@std@@V?$unique_ptr@VValue@Json@@U?$default_delete@VValue@Json@@@std@@@2@@std@@@std@@@2@$00@std@@QEAA@U_One_then_variadic_args_t@1@AEBV?$allocator@U?$pair@$$CBV?$basic_string@DU?$char_traits@D@std@@V?$allocator@D@2@@std@@V?$unique_ptr@VValue@Json@@U?$default_delete@VValue@Json@@@std@@@2@@std@@@1@@Z ; std::_Compressed_pair<std::allocator<std::_List_node<std::pair<std::basic_string<char,std::char_traits<char>,std::allocator<char> > const ,std::unique_ptr<Json::Value,std::default_delete<Json::Value> > >,void *> >,std::_List_val<std::_List_simple_types<std::pair<std::basic_string<char,std::char_traits<char>,std::allocator<char> > const ,std::unique_ptr<Json::Value,std::default_delete<Json::Value> > > > >,1>::_Compressed_pair<std::allocator<std::_List_node<std::pair<std::basic_string<char,std::char_traits<char>,std::allocator<char> > const ,std::unique_ptr<Json::Value,std::default_delete<Json::Value> > >,void *> >,std::_List_val<std::_List_simple_types<std::pair<std::basic_string<char,std::char_traits<char>,std::allocator<char> > const ,std::unique_ptr<Json::Value,std::default_delete<Json::Value> > > > >,1><std::allocator<std::pair<std::basic_string<char,std::char_traits<char>,std::allocator<char> > const ,std::unique_ptr<Json::Value,std::default_delete<Json::Value> > > > const &>
PUBLIC	??$_Deallocate@$0BA@@std@@YAXPEAX_K@Z		; std::_Deallocate<16>
PUBLIC	??$fill@PEAV?$_List_unchecked_iterator@V?$_List_val@U?$_List_simple_types@U?$pair@$$CBV?$basic_string@DU?$char_traits@D@std@@V?$allocator@D@2@@std@@V?$unique_ptr@VValue@Json@@U?$default_delete@VValue@Json@@@std@@@2@@std@@@std@@@std@@@std@@V12@@std@@YAXQEAV?$_List_unchecked_iterator@V?$_List_val@U?$_List_simple_types@U?$pair@$$CBV?$basic_string@DU?$char_traits@D@std@@V?$allocator@D@2@@std@@V?$unique_ptr@VValue@Json@@U?$default_delete@VValue@Json@@@std@@@2@@std@@@std@@@std@@@0@0AEBV10@@Z ; std::fill<std::_List_unchecked_iterator<std::_List_val<std::_List_simple_types<std::pair<std::basic_string<char,std::char_traits<char>,std::allocator<char> > const ,std::unique_ptr<Json::Value,std::default_delete<Json::Value> > > > > > *,std::_List_unchecked_iterator<std::_List_val<std::_List_simple_types<std::pair<std::basic_string<char,std::char_traits<char>,std::allocator<char> > const ,std::unique_ptr<Json::Value,std::default_delete<Json::Value> > > > > > >
PUBLIC	??$uninitialized_fill@PEAV?$_List_unchecked_iterator@V?$_List_val@U?$_List_simple_types@U?$pair@$$CBV?$basic_string@DU?$char_traits@D@std@@V?$allocator@D@2@@std@@V?$unique_ptr@VValue@Json@@U?$default_delete@VValue@Json@@@std@@@2@@std@@@std@@@std@@@std@@V12@@std@@YAXQEAV?$_List_unchecked_iterator@V?$_List_val@U?$_List_simple_types@U?$pair@$$CBV?$basic_string@DU?$char_traits@D@std@@V?$allocator@D@2@@std@@V?$unique_ptr@VValue@Json@@U?$default_delete@VValue@Json@@@std@@@2@@std@@@std@@@std@@@0@0AEBV10@@Z ; std::uninitialized_fill<std::_List_unchecked_iterator<std::_List_val<std::_List_simple_types<std::pair<std::basic_string<char,std::char_traits<char>,std::allocator<char> > const ,std::unique_ptr<Json::Value,std::default_delete<Json::Value> > > > > > *,std::_List_unchecked_iterator<std::_List_val<std::_List_simple_types<std::pair<std::basic_string<char,std::char_traits<char>,std::allocator<char> > const ,std::unique_ptr<Json::Value,std::default_delete<Json::Value> > > > > > >
PUBLIC	??$_Get_unwrapped@AEBQEAV?$_List_unchecked_iterator@V?$_List_val@U?$_List_simple_types@U?$pair@$$CBV?$basic_string@DU?$char_traits@D@std@@V?$allocator@D@2@@std@@V?$unique_ptr@VValue@Json@@U?$default_delete@VValue@Json@@@std@@@2@@std@@@std@@@std@@@std@@@std@@YA?A_TAEBQEAV?$_List_unchecked_iterator@V?$_List_val@U?$_List_simple_types@U?$pair@$$CBV?$basic_string@DU?$char_traits@D@std@@V?$allocator@D@2@@std@@V?$unique_ptr@VValue@Json@@U?$default_delete@VValue@Json@@@std@@@2@@std@@@std@@@std@@@0@@Z ; std::_Get_unwrapped<std::_List_unchecked_iterator<std::_List_val<std::_List_simple_types<std::pair<std::basic_string<char,std::char_traits<char>,std::allocator<char> > const ,std::unique_ptr<Json::Value,std::default_delete<Json::Value> > > > > > * const &>
PUBLIC	??$construct_at@PEADAEAPEAD@std@@YAPEAPEADQEAPEADAEAPEAD@Z ; std::construct_at<char *,char * &>
PUBLIC	??$forward@AEAPEAD@std@@YAAEAPEADAEAPEAD@Z	; std::forward<char * &>
PUBLIC	??$forward@PEAV?$unique_ptr@VValue@Json@@U?$default_delete@VValue@Json@@@std@@@std@@@std@@YA$$QEAPEAV?$unique_ptr@VValue@Json@@U?$default_delete@VValue@Json@@@std@@@0@AEAPEAV10@@Z ; std::forward<std::unique_ptr<Json::Value,std::default_delete<Json::Value> > *>
PUBLIC	??$forward@V?$allocator@V?$unique_ptr@VValue@Json@@U?$default_delete@VValue@Json@@@std@@@std@@@std@@@std@@YA$$QEAV?$allocator@V?$unique_ptr@VValue@Json@@U?$default_delete@VValue@Json@@@std@@@std@@@0@AEAV10@@Z ; std::forward<std::allocator<std::unique_ptr<Json::Value,std::default_delete<Json::Value> > > >
PUBLIC	??$destroy@V?$unique_ptr@VValue@Json@@U?$default_delete@VValue@Json@@@std@@@std@@@?$_Default_allocator_traits@V?$allocator@V?$unique_ptr@VValue@Json@@U?$default_delete@VValue@Json@@@std@@@std@@@std@@@std@@SAXAEAV?$allocator@V?$unique_ptr@VValue@Json@@U?$default_delete@VValue@Json@@@std@@@std@@@1@QEAV?$unique_ptr@VValue@Json@@U?$default_delete@VValue@Json@@@std@@@1@@Z ; std::_Default_allocator_traits<std::allocator<std::unique_ptr<Json::Value,std::default_delete<Json::Value> > > >::destroy<std::unique_ptr<Json::Value,std::default_delete<Json::Value> > >
PUBLIC	??$_Unfancy@V?$unique_ptr@VValue@Json@@U?$default_delete@VValue@Json@@@std@@@std@@@std@@YAPEAV?$unique_ptr@VValue@Json@@U?$default_delete@VValue@Json@@@std@@@0@PEAV10@@Z ; std::_Unfancy<std::unique_ptr<Json::Value,std::default_delete<Json::Value> > >
PUBLIC	??$forward@M@std@@YA$$QEAMAEAM@Z		; std::forward<float>
PUBLIC	??$forward@U_Zero_then_variadic_args_t@std@@@std@@YA$$QEAU_Zero_then_variadic_args_t@0@AEAU10@@Z ; std::forward<std::_Zero_then_variadic_args_t>
PUBLIC	??$?0AEBV?$allocator@U?$pair@$$CBV?$basic_string@DU?$char_traits@D@std@@V?$allocator@D@2@@std@@V?$unique_ptr@VValue@Json@@U?$default_delete@VValue@Json@@@std@@@2@@std@@@std@@$$V@?$_Compressed_pair@V?$allocator@V?$_List_unchecked_iterator@V?$_List_val@U?$_List_simple_types@U?$pair@$$CBV?$basic_string@DU?$char_traits@D@std@@V?$allocator@D@2@@std@@V?$unique_ptr@VValue@Json@@U?$default_delete@VValue@Json@@@std@@@2@@std@@@std@@@std@@@std@@@std@@V?$_Vector_val@U?$_Simple_types@V?$_List_unchecked_iterator@V?$_List_val@U?$_List_simple_types@U?$pair@$$CBV?$basic_string@DU?$char_traits@D@std@@V?$allocator@D@2@@std@@V?$unique_ptr@VValue@Json@@U?$default_delete@VValue@Json@@@std@@@2@@std@@@std@@@std@@@std@@@std@@@2@$00@std@@QEAA@U_One_then_variadic_args_t@1@AEBV?$allocator@U?$pair@$$CBV?$basic_string@DU?$char_traits@D@std@@V?$allocator@D@2@@std@@V?$unique_ptr@VValue@Json@@U?$default_delete@VValue@Json@@@std@@@2@@std@@@1@@Z ; std::_Compressed_pair<std::allocator<std::_List_unchecked_iterator<std::_List_val<std::_List_simple_types<std::pair<std::basic_string<char,std::char_traits<char>,std::allocator<char> > const ,std::unique_ptr<Json::Value,std::default_delete<Json::Value> > > > > > >,std::_Vector_val<std::_Simple_types<std::_List_unchecked_iterator<std::_List_val<std::_List_simple_types<std::pair<std::basic_string<char,std::char_traits<char>,std::allocator<char> > const ,std::unique_ptr<Json::Value,std::default_delete<Json::Value> > > > > > > >,1>::_Compressed_pair<std::allocator<std::_List_unchecked_iterator<std::_List_val<std::_List_simple_types<std::pair<std::basic_string<char,std::char_traits<char>,std::allocator<char> > const ,std::unique_ptr<Json::Value,std::default_delete<Json::Value> > > > > > >,std::_Vector_val<std::_Simple_types<std::_List_unchecked_iterator<std::_List_val<std::_List_simple_types<std::pair<std::basic_string<char,std::char_traits<char>,std::allocator<char> > const ,std::unique_ptr<Json::Value,std::default_delete<Json::Value> > > > > > > >,1><std::allocator<std::pair<std::basic_string<char,std::char_traits<char>,std::allocator<char> > const ,std::unique_ptr<Json::Value,std::default_delete<Json::Value> > > > const &>
PUBLIC	??$forward@AEBV?$allocator@U?$pair@$$CBV?$basic_string@DU?$char_traits@D@std@@V?$allocator@D@2@@std@@V?$unique_ptr@VValue@Json@@U?$default_delete@VValue@Json@@@std@@@2@@std@@@std@@@std@@YAAEBV?$allocator@U?$pair@$$CBV?$basic_string@DU?$char_traits@D@std@@V?$allocator@D@2@@std@@V?$unique_ptr@VValue@Json@@U?$default_delete@VValue@Json@@@std@@@2@@std@@@0@AEBV10@@Z ; std::forward<std::allocator<std::pair<std::basic_string<char,std::char_traits<char>,std::allocator<char> > const ,std::unique_ptr<Json::Value,std::default_delete<Json::Value> > > > const &>
PUBLIC	??$_Destroy_in_place@PEAU?$_List_node@U?$pair@$$CBV?$basic_string@DU?$char_traits@D@std@@V?$allocator@D@2@@std@@V?$unique_ptr@VValue@Json@@U?$default_delete@VValue@Json@@@std@@@2@@std@@PEAX@std@@@std@@YAXAEAPEAU?$_List_node@U?$pair@$$CBV?$basic_string@DU?$char_traits@D@std@@V?$allocator@D@2@@std@@V?$unique_ptr@VValue@Json@@U?$default_delete@VValue@Json@@@std@@@2@@std@@PEAX@0@@Z ; std::_Destroy_in_place<std::_List_node<std::pair<std::basic_string<char,std::char_traits<char>,std::allocator<char> > const ,std::unique_ptr<Json::Value,std::default_delete<Json::Value> > >,void *> *>
PUBLIC	??$_Freenode@V?$allocator@U?$_List_node@U?$pair@$$CBV?$basic_string@DU?$char_traits@D@std@@V?$allocator@D@2@@std@@V?$unique_ptr@VValue@Json@@U?$default_delete@VValue@Json@@@std@@@2@@std@@PEAX@std@@@std@@@?$_List_node@U?$pair@$$CBV?$basic_string@DU?$char_traits@D@std@@V?$allocator@D@2@@std@@V?$unique_ptr@VValue@Json@@U?$default_delete@VValue@Json@@@std@@@2@@std@@PEAX@std@@SAXAEAV?$allocator@U?$_List_node@U?$pair@$$CBV?$basic_string@DU?$char_traits@D@std@@V?$allocator@D@2@@std@@V?$unique_ptr@VValue@Json@@U?$default_delete@VValue@Json@@@std@@@2@@std@@PEAX@std@@@1@PEAU01@@Z ; std::_List_node<std::pair<std::basic_string<char,std::char_traits<char>,std::allocator<char> > const ,std::unique_ptr<Json::Value,std::default_delete<Json::Value> > >,void *>::_Freenode<std::allocator<std::_List_node<std::pair<std::basic_string<char,std::char_traits<char>,std::allocator<char> > const ,std::unique_ptr<Json::Value,std::default_delete<Json::Value> > >,void *> > >
PUBLIC	??$handleEscapedChar@$$CBV?$basic_string@DU?$char_traits@D@std@@V?$allocator@D@2@@std@@@Parser@Json@@CAXAEBV?$basic_string@DU?$char_traits@D@std@@V?$allocator@D@2@@std@@AEA_KAEAV23@@Z ; Json::Parser::handleEscapedChar<std::basic_string<char,std::char_traits<char>,std::allocator<char> > const >
PUBLIC	??$skipCommentScalar@V?$basic_string@DU?$char_traits@D@std@@V?$allocator@D@2@@std@@@Parser@Json@@CA_KAEBV?$basic_string@DU?$char_traits@D@std@@V?$allocator@D@2@@std@@_K@Z ; Json::Parser::skipCommentScalar<std::basic_string<char,std::char_traits<char>,std::allocator<char> > >
PUBLIC	??$skipCommentSIMD16@V?$basic_string@DU?$char_traits@D@std@@V?$allocator@D@2@@std@@@Parser@Json@@CA_KAEBV?$basic_string@DU?$char_traits@D@std@@V?$allocator@D@2@@std@@_K@Z ; Json::Parser::skipCommentSIMD16<std::basic_string<char,std::char_traits<char>,std::allocator<char> > >
PUBLIC	??$_Emplace_reallocate@V?$unique_ptr@VValue@Json@@U?$default_delete@VValue@Json@@@std@@@std@@@?$vector@V?$unique_ptr@VValue@Json@@U?$default_delete@VValue@Json@@@std@@@std@@V?$allocator@V?$unique_ptr@VValue@Json@@U?$default_delete@VValue@Json@@@std@@@std@@@2@@std@@AEAAPEAV?$unique_ptr@VValue@Json@@U?$default_delete@VValue@Json@@@std@@@1@QEAV21@$$QEAV21@@Z ; std::vector<std::unique_ptr<Json::Value,std::default_delete<Json::Value> >,std::allocator<std::unique_ptr<Json::Value,std::default_delete<Json::Value> > > >::_Emplace_reallocate<std::unique_ptr<Json::Value,std::default_delete<Json::Value> > >
PUBLIC	??$_Emplace_back_with_unused_capacity@V?$unique_ptr@VValue@Json@@U?$default_delete@VValue@Json@@@std@@@std@@@?$vector@V?$unique_ptr@VValue@Json@@U?$default_delete@VValue@Json@@@std@@@std@@V?$allocator@V?$unique_ptr@VValue@Json@@U?$default_delete@VValue@Json@@@std@@@std@@@2@@std@@AEAAAEAV?$unique_ptr@VValue@Json@@U?$default_delete@VValue@Json@@@std@@@1@$$QEAV21@@Z ; std::vector<std::unique_ptr<Json::Value,std::default_delete<Json::Value> >,std::allocator<std::unique_ptr<Json::Value,std::default_delete<Json::Value> > > >::_Emplace_back_with_unused_capacity<std::unique_ptr<Json::Value,std::default_delete<Json::Value> > >
PUBLIC	??$?0U?$default_delete@VString@Json@@@std@@PEAVString@Json@@@?$_Compressed_pair@U?$default_delete@VValue@Json@@@std@@PEAVValue@Json@@$00@std@@QEAA@U_One_then_variadic_args_t@1@$$QEAU?$default_delete@VString@Json@@@1@$$QEAPEAVString@Json@@@Z ; std::_Compressed_pair<std::default_delete<Json::Value>,Json::Value *,1>::_Compressed_pair<std::default_delete<Json::Value>,Json::Value *,1><std::default_delete<Json::String>,Json::String *>
PUBLIC	??$forward@U?$default_delete@VString@Json@@@std@@@std@@YA$$QEAU?$default_delete@VString@Json@@@0@AEAU10@@Z ; std::forward<std::default_delete<Json::String> >
PUBLIC	??$?0VNumber@Json@@U?$default_delete@VNumber@Json@@@std@@$0A@@?$unique_ptr@VValue@Json@@U?$default_delete@VValue@Json@@@std@@@std@@QEAA@$$QEAV?$unique_ptr@VNumber@Json@@U?$default_delete@VNumber@Json@@@std@@@1@@Z ; std::unique_ptr<Json::Value,std::default_delete<Json::Value> >::unique_ptr<Json::Value,std::default_delete<Json::Value> ><Json::Number,std::default_delete<Json::Number>,0>
PUBLIC	??$make_unique@VNumber@Json@@N$0A@@std@@YA?AV?$unique_ptr@VNumber@Json@@U?$default_delete@VNumber@Json@@@std@@@0@$$QEAN@Z ; std::make_unique<Json::Number,double,0>
PUBLIC	??$?0VNull@Json@@U?$default_delete@VNull@Json@@@std@@$0A@@?$unique_ptr@VValue@Json@@U?$default_delete@VValue@Json@@@std@@@std@@QEAA@$$QEAV?$unique_ptr@VNull@Json@@U?$default_delete@VNull@Json@@@std@@@1@@Z ; std::unique_ptr<Json::Value,std::default_delete<Json::Value> >::unique_ptr<Json::Value,std::default_delete<Json::Value> ><Json::Null,std::default_delete<Json::Null>,0>
PUBLIC	??$make_unique@VNull@Json@@$$V$0A@@std@@YA?AV?$unique_ptr@VNull@Json@@U?$default_delete@VNull@Json@@@std@@@0@XZ ; std::make_unique<Json::Null,0>
PUBLIC	??$?0VBool@Json@@U?$default_delete@VBool@Json@@@std@@$0A@@?$unique_ptr@VValue@Json@@U?$default_delete@VValue@Json@@@std@@@std@@QEAA@$$QEAV?$unique_ptr@VBool@Json@@U?$default_delete@VBool@Json@@@std@@@1@@Z ; std::unique_ptr<Json::Value,std::default_delete<Json::Value> >::unique_ptr<Json::Value,std::default_delete<Json::Value> ><Json::Bool,std::default_delete<Json::Bool>,0>
PUBLIC	??$make_unique@VBool@Json@@_N$0A@@std@@YA?AV?$unique_ptr@VBool@Json@@U?$default_delete@VBool@Json@@@std@@@0@$$QEA_N@Z ; std::make_unique<Json::Bool,bool,0>
PUBLIC	??$?0U?$default_delete@VString@Json@@@std@@$0A@@?$unique_ptr@VString@Json@@U?$default_delete@VString@Json@@@std@@@std@@QEAA@PEAVString@Json@@@Z ; std::unique_ptr<Json::String,std::default_delete<Json::String> >::unique_ptr<Json::String,std::default_delete<Json::String> ><std::default_delete<Json::String>,0>
PUBLIC	??$?0V?$basic_string@DU?$char_traits@D@std@@V?$allocator@D@2@@std@@@String@Json@@QEAA@$$QEAV?$basic_string@DU?$char_traits@D@std@@V?$allocator@D@2@@std@@@Z ; Json::String::String<std::basic_string<char,std::char_traits<char>,std::allocator<char> > >
PUBLIC	??$forward@V?$basic_string@DU?$char_traits@D@std@@V?$allocator@D@2@@std@@@std@@YA$$QEAV?$basic_string@DU?$char_traits@D@std@@V?$allocator@D@2@@0@AEAV10@@Z ; std::forward<std::basic_string<char,std::char_traits<char>,std::allocator<char> > >
PUBLIC	??$handleEscapedChar@V?$MappedFile@$0A@@@@Parser@Json@@CAXAEAV?$MappedFile@$0A@@@AEA_KAEAV?$basic_string@DU?$char_traits@D@std@@V?$allocator@D@2@@std@@@Z ; Json::Parser::handleEscapedChar<MappedFile<0> >
PUBLIC	??$?0VArray@Json@@U?$default_delete@VArray@Json@@@std@@$0A@@?$unique_ptr@VValue@Json@@U?$default_delete@VValue@Json@@@std@@@std@@QEAA@$$QEAV?$unique_ptr@VArray@Json@@U?$default_delete@VArray@Json@@@std@@@1@@Z ; std::unique_ptr<Json::Value,std::default_delete<Json::Value> >::unique_ptr<Json::Value,std::default_delete<Json::Value> ><Json::Array,std::default_delete<Json::Array>,0>
PUBLIC	??$make_unique@VArray@Json@@$$V$0A@@std@@YA?AV?$unique_ptr@VArray@Json@@U?$default_delete@VArray@Json@@@std@@@0@XZ ; std::make_unique<Json::Array,0>
PUBLIC	??$?0VObject@Json@@U?$default_delete@VObject@Json@@@std@@$0A@@?$unique_ptr@VValue@Json@@U?$default_delete@VValue@Json@@@std@@@std@@QEAA@$$QEAV?$unique_ptr@VObject@Json@@U?$default_delete@VObject@Json@@@std@@@1@@Z ; std::unique_ptr<Json::Value,std::default_delete<Json::Value> >::unique_ptr<Json::Value,std::default_delete<Json::Value> ><Json::Object,std::default_delete<Json::Object>,0>
PUBLIC	??$emplace@V?$basic_string@DU?$char_traits@D@std@@V?$allocator@D@2@@std@@V?$unique_ptr@VValue@Json@@U?$default_delete@VValue@Json@@@std@@@2@@?$_Hash@V?$_Umap_traits@V?$basic_string@DU?$char_traits@D@std@@V?$allocator@D@2@@std@@V?$unique_ptr@VValue@Json@@U?$default_delete@VValue@Json@@@std@@@2@V?$_Uhash_compare@V?$basic_string@DU?$char_traits@D@std@@V?$allocator@D@2@@std@@U?$hash@V?$basic_string@DU?$char_traits@D@std@@V?$allocator@D@2@@std@@@2@U?$equal_to@V?$basic_string@DU?$char_traits@D@std@@V?$allocator@D@2@@std@@@2@@2@V?$allocator@U?$pair@$$CBV?$basic_string@DU?$char_traits@D@std@@V?$allocator@D@2@@std@@V?$unique_ptr@VValue@Json@@U?$default_delete@VValue@Json@@@std@@@2@@std@@@2@$0A@@std@@@std@@QEAA?AU?$pair@V?$_List_iterator@V?$_List_val@U?$_List_simple_types@U?$pair@$$CBV?$basic_string@DU?$char_traits@D@std@@V?$allocator@D@2@@std@@V?$unique_ptr@VValue@Json@@U?$default_delete@VValue@Json@@@std@@@2@@std@@@std@@@std@@@std@@_N@1@$$QEAV?$basic_string@DU?$char_traits@D@std@@V?$allocator@D@2@@1@$$QEAV?$unique_ptr@VValue@Json@@U?$default_delete@VValue@Json@@@std@@@1@@Z ; std::_Hash<std::_Umap_traits<std::basic_string<char,std::char_traits<char>,std::allocator<char> >,std::unique_ptr<Json::Value,std::default_delete<Json::Value> >,std::_Uhash_compare<std::basic_string<char,std::char_traits<char>,std::allocator<char> >,std::hash<std::basic_string<char,std::char_traits<char>,std::allocator<char> > >,std::equal_to<std::basic_string<char,std::char_traits<char>,std::allocator<char> > > >,std::allocator<std::pair<std::basic_string<char,std::char_traits<char>,std::allocator<char> > const ,std::unique_ptr<Json::Value,std::default_delete<Json::Value> > > >,0> >::emplace<std::basic_string<char,std::char_traits<char>,std::allocator<char> >,std::unique_ptr<Json::Value,std::default_delete<Json::Value> > >
PUBLIC	??$?HDU?$char_traits@D@std@@V?$allocator@D@1@@std@@YA?AV?$basic_string@DU?$char_traits@D@std@@V?$allocator@D@2@@0@$$QEAV10@AEBV10@@Z ; std::operator+<char,std::char_traits<char>,std::allocator<char> >
PUBLIC	??$make_unique@VObject@Json@@$$V$0A@@std@@YA?AV?$unique_ptr@VObject@Json@@U?$default_delete@VObject@Json@@@std@@@0@XZ ; std::make_unique<Json::Object,0>
PUBLIC	??$skipCommentScalar@V?$MappedFile@$0A@@@@Parser@Json@@CA_KAEBV?$MappedFile@$0A@@@_K@Z ; Json::Parser::skipCommentScalar<MappedFile<0> >
PUBLIC	??$skipCommentSIMD16@V?$MappedFile@$0A@@@@Parser@Json@@CA_KAEBV?$MappedFile@$0A@@@_K@Z ; Json::Parser::skipCommentSIMD16<MappedFile<0> >
PUBLIC	??$forward@AEBV?$allocator@D@std@@@std@@YAAEBV?$allocator@D@0@AEBV10@@Z ; std::forward<std::allocator<char> const &>
PUBLIC	??$?0M@?$_Compressed_pair@U?$equal_to@V?$basic_string@DU?$char_traits@D@std@@V?$allocator@D@2@@std@@@std@@M$00@std@@QEAA@U_Zero_then_variadic_args_t@1@$$QEAM@Z ; std::_Compressed_pair<std::equal_to<std::basic_string<char,std::char_traits<char>,std::allocator<char> > >,float,1>::_Compressed_pair<std::equal_to<std::basic_string<char,std::char_traits<char>,std::allocator<char> > >,float,1><float>
PUBLIC	??$?HDU?$char_traits@D@std@@V?$allocator@D@1@@std@@YA?AV?$basic_string@DU?$char_traits@D@std@@V?$allocator@D@2@@0@QEBD$$QEAV10@@Z ; std::operator+<char,std::char_traits<char>,std::allocator<char> >
PUBLIC	??0?$_List_unchecked_iterator@V?$_List_val@U?$_List_simple_types@U?$pair@$$CBV?$basic_string@DU?$char_traits@D@std@@V?$allocator@D@2@@std@@V?$unique_ptr@VValue@Json@@U?$default_delete@VValue@Json@@@std@@@2@@std@@@std@@@std@@@std@@QEAA@PEAU?$_List_node@U?$pair@$$CBV?$basic_string@DU?$char_traits@D@std@@V?$allocator@D@2@@std@@V?$unique_ptr@VValue@Json@@U?$default_delete@VValue@Json@@@std@@@2@@std@@PEAX@1@PEBV?$_List_val@U?$_List_simple_types@U?$pair@$$CBV?$basic_string@DU?$char_traits@D@std@@V?$allocator@D@2@@std@@V?$unique_ptr@VValue@Json@@U?$default_delete@VValue@Json@@@std@@@2@@std@@@std@@@1@@Z ; std::_List_unchecked_iterator<std::_List_val<std::_List_simple_types<std::pair<std::basic_string<char,std::char_traits<char>,std::allocator<char> > const ,std::unique_ptr<Json::Value,std::default_delete<Json::Value> > > > > >::_List_unchecked_iterator<std::_List_val<std::_List_simple_types<std::pair<std::basic_string<char,std::char_traits<char>,std::allocator<char> > const ,std::unique_ptr<Json::Value,std::default_delete<Json::Value> > > > > >
PUBLIC	?__autoclassinit2@?$unique_ptr@VArray@Json@@U?$default_delete@VArray@Json@@@std@@@std@@QEAAX_K@Z ; std::unique_ptr<Json::Array,std::default_delete<Json::Array> >::__autoclassinit2
PUBLIC	?__autoclassinit2@?$unique_ptr@VObject@Json@@U?$default_delete@VObject@Json@@@std@@@std@@QEAAX_K@Z ; std::unique_ptr<Json::Object,std::default_delete<Json::Object> >::__autoclassinit2
PUBLIC	?allocate@?$allocator@D@std@@QEAAPEAD_K@Z	; std::allocator<char>::allocate
PUBLIC	?move@?$_Char_traits@DH@std@@SAPEADQEADQEBD_K@Z	; std::_Char_traits<char,int>::move
PUBLIC	?_Deallocate_for_capacity@?$basic_string@DU?$char_traits@D@std@@V?$allocator@D@2@@std@@CAXAEAV?$allocator@D@2@QEAD_K@Z ; std::basic_string<char,std::char_traits<char>,std::allocator<char> >::_Deallocate_for_capacity
PUBLIC	??A?$basic_string@DU?$char_traits@D@std@@V?$allocator@D@2@@std@@QEBAAEBD_K@Z ; std::basic_string<char,std::char_traits<char>,std::allocator<char> >::operator[]
PUBLIC	?_Swap_proxy_and_iterators@?$basic_string@DU?$char_traits@D@std@@V?$allocator@D@2@@std@@AEAAXAEAV12@@Z ; std::basic_string<char,std::char_traits<char>,std::allocator<char> >::_Swap_proxy_and_iterators
PUBLIC	?_Activate_SSO_buffer@?$_String_val@U?$_Simple_types@D@std@@@std@@QEAAXXZ ; std::_String_val<std::_Simple_types<char> >::_Activate_SSO_buffer
PUBLIC	?_Switch_to_buf@_Bxty@?$_String_val@U?$_Simple_types@D@std@@@std@@QEAAXXZ ; std::_String_val<std::_Simple_types<char> >::_Bxty::_Switch_to_buf
PUBLIC	??0_Sentry_base@?$basic_ostream@DU?$char_traits@D@std@@@std@@QEAA@AEAV12@@Z ; std::basic_ostream<char,std::char_traits<char> >::_Sentry_base::_Sentry_base
PUBLIC	??1_Sentry_base@?$basic_ostream@DU?$char_traits@D@std@@@std@@QEAA@XZ ; std::basic_ostream<char,std::char_traits<char> >::_Sentry_base::~_Sentry_base
PUBLIC	??R?$default_delete@VValue@Json@@@std@@QEBAXPEAVValue@Json@@@Z ; std::default_delete<Json::Value>::operator()
PUBLIC	??0?$allocator@V?$unique_ptr@VValue@Json@@U?$default_delete@VValue@Json@@@std@@@std@@@std@@QEAA@XZ ; std::allocator<std::unique_ptr<Json::Value,std::default_delete<Json::Value> > >::allocator<std::unique_ptr<Json::Value,std::default_delete<Json::Value> > >
PUBLIC	?deallocate@?$allocator@V?$unique_ptr@VValue@Json@@U?$default_delete@VValue@Json@@@std@@@std@@@std@@QEAAXQEAV?$unique_ptr@VValue@Json@@U?$default_delete@VValue@Json@@@std@@@2@_K@Z ; std::allocator<std::unique_ptr<Json::Value,std::default_delete<Json::Value> > >::deallocate
PUBLIC	?_Getal@?$vector@V?$unique_ptr@VValue@Json@@U?$default_delete@VValue@Json@@@std@@@std@@V?$allocator@V?$unique_ptr@VValue@Json@@U?$default_delete@VValue@Json@@@std@@@std@@@2@@std@@AEAAAEAV?$allocator@V?$unique_ptr@VValue@Json@@U?$default_delete@VValue@Json@@@std@@@std@@@2@XZ ; std::vector<std::unique_ptr<Json::Value,std::default_delete<Json::Value> >,std::allocator<std::unique_ptr<Json::Value,std::default_delete<Json::Value> > > >::_Getal
PUBLIC	??0?$_Vector_val@U?$_Simple_types@V?$unique_ptr@VValue@Json@@U?$default_delete@VValue@Json@@@std@@@std@@@std@@@std@@QEAA@XZ ; std::_Vector_val<std::_Simple_types<std::unique_ptr<Json::Value,std::default_delete<Json::Value> > > >::_Vector_val<std::_Simple_types<std::unique_ptr<Json::Value,std::default_delete<Json::Value> > > >
PUBLIC	??0?$_Umap_traits@V?$basic_string@DU?$char_traits@D@std@@V?$allocator@D@2@@std@@V?$unique_ptr@VValue@Json@@U?$default_delete@VValue@Json@@@std@@@2@V?$_Uhash_compare@V?$basic_string@DU?$char_traits@D@std@@V?$allocator@D@2@@std@@U?$hash@V?$basic_string@DU?$char_traits@D@std@@V?$allocator@D@2@@std@@@2@U?$equal_to@V?$basic_string@DU?$char_traits@D@std@@V?$allocator@D@2@@std@@@2@@2@V?$allocator@U?$pair@$$CBV?$basic_string@DU?$char_traits@D@std@@V?$allocator@D@2@@std@@V?$unique_ptr@VValue@Json@@U?$default_delete@VValue@Json@@@std@@@2@@std@@@2@$0A@@std@@QEAA@AEBV?$_Uhash_compare@V?$basic_string@DU?$char_traits@D@std@@V?$allocator@D@2@@std@@U?$hash@V?$basic_string@DU?$char_traits@D@std@@V?$allocator@D@2@@std@@@2@U?$equal_to@V?$basic_string@DU?$char_traits@D@std@@V?$allocator@D@2@@std@@@2@@1@@Z ; std::_Umap_traits<std::basic_string<char,std::char_traits<char>,std::allocator<char> >,std::unique_ptr<Json::Value,std::default_delete<Json::Value> >,std::_Uhash_compare<std::basic_string<char,std::char_traits<char>,std::allocator<char> >,std::hash<std::basic_string<char,std::char_traits<char>,std::allocator<char> > >,std::equal_to<std::basic_string<char,std::char_traits<char>,std::allocator<char> > > >,std::allocator<std::pair<std::basic_string<char,std::char_traits<char>,std::allocator<char> > const ,std::unique_ptr<Json::Value,std::default_delete<Json::Value> > > >,0>::_Umap_traits<std::basic_string<char,std::char_traits<char>,std::allocator<char> >,std::unique_ptr<Json::Value,std::default_delete<Json::Value> >,std::_Uhash_compare<std::basic_string<char,std::char_traits<char>,std::allocator<char> >,std::hash<std::basic_string<char,std::char_traits<char>,std::allocator<char> > >,std::equal_to<std::basic_string<char,std::char_traits<char>,std::allocator<char> > > >,std::allocator<std::pair<std::basic_string<char,std::char_traits<char>,std::allocator<char> > const ,std::unique_ptr<Json::Value,std::default_delete<Json::Value> > > >,0>
PUBLIC	?_Max_bucket_size@?$_Hash@V?$_Umap_traits@V?$basic_string@DU?$char_traits@D@std@@V?$allocator@D@2@@std@@V?$unique_ptr@VValue@Json@@U?$default_delete@VValue@Json@@@std@@@2@V?$_Uhash_compare@V?$basic_string@DU?$char_traits@D@std@@V?$allocator@D@2@@std@@U?$hash@V?$basic_string@DU?$char_traits@D@std@@V?$allocator@D@2@@std@@@2@U?$equal_to@V?$basic_string@DU?$char_traits@D@std@@V?$allocator@D@2@@std@@@2@@2@V?$allocator@U?$pair@$$CBV?$basic_string@DU?$char_traits@D@std@@V?$allocator@D@2@@std@@V?$unique_ptr@VValue@Json@@U?$default_delete@VValue@Json@@@std@@@2@@std@@@2@$0A@@std@@@std@@IEAAAEAMXZ ; std::_Hash<std::_Umap_traits<std::basic_string<char,std::char_traits<char>,std::allocator<char> >,std::unique_ptr<Json::Value,std::default_delete<Json::Value> >,std::_Uhash_compare<std::basic_string<char,std::char_traits<char>,std::allocator<char> >,std::hash<std::basic_string<char,std::char_traits<char>,std::allocator<char> > >,std::equal_to<std::basic_string<char,std::char_traits<char>,std::allocator<char> > > >,std::allocator<std::pair<std::basic_string<char,std::char_traits<char>,std::allocator<char> > const ,std::unique_ptr<Json::Value,std::default_delete<Json::Value> > > >,0> >::_Max_bucket_size
PUBLIC	??0?$list@U?$pair@$$CBV?$basic_string@DU?$char_traits@D@std@@V?$allocator@D@2@@std@@V?$unique_ptr@VValue@Json@@U?$default_delete@VValue@Json@@@std@@@2@@std@@V?$allocator@U?$pair@$$CBV?$basic_string@DU?$char_traits@D@std@@V?$allocator@D@2@@std@@V?$unique_ptr@VValue@Json@@U?$default_delete@VValue@Json@@@std@@@2@@std@@@2@@std@@QEAA@AEBV?$allocator@U?$pair@$$CBV?$basic_string@DU?$char_traits@D@std@@V?$allocator@D@2@@std@@V?$unique_ptr@VValue@Json@@U?$default_delete@VValue@Json@@@std@@@2@@std@@@1@@Z ; std::list<std::pair<std::basic_string<char,std::char_traits<char>,std::allocator<char> > const ,std::unique_ptr<Json::Value,std::default_delete<Json::Value> > >,std::allocator<std::pair<std::basic_string<char,std::char_traits<char>,std::allocator<char> > const ,std::unique_ptr<Json::Value,std::default_delete<Json::Value> > > > >::list<std::pair<std::basic_string<char,std::char_traits<char>,std::allocator<char> > const ,std::unique_ptr<Json::Value,std::default_delete<Json::Value> > >,std::allocator<std::pair<std::basic_string<char,std::char_traits<char>,std::allocator<char> > const ,std::unique_ptr<Json::Value,std::default_delete<Json::Value> > > > >
PUBLIC	?_Unchecked_end@?$list@U?$pair@$$CBV?$basic_string@DU?$char_traits@D@std@@V?$allocator@D@2@@std@@V?$unique_ptr@VValue@Json@@U?$default_delete@VValue@Json@@@std@@@2@@std@@V?$allocator@U?$pair@$$CBV?$basic_string@DU?$char_traits@D@std@@V?$allocator@D@2@@std@@V?$unique_ptr@VValue@Json@@U?$default_delete@VValue@Json@@@std@@@2@@std@@@2@@std@@QEAA?AV?$_List_unchecked_iterator@V?$_List_val@U?$_List_simple_types@U?$pair@$$CBV?$basic_string@DU?$char_traits@D@std@@V?$allocator@D@2@@std@@V?$unique_ptr@VValue@Json@@U?$default_delete@VValue@Json@@@std@@@2@@std@@@std@@@std@@@2@XZ ; std::list<std::pair<std::basic_string<char,std::char_traits<char>,std::allocator<char> > const ,std::unique_ptr<Json::Value,std::default_delete<Json::Value> > >,std::allocator<std::pair<std::basic_string<char,std::char_traits<char>,std::allocator<char> > const ,std::unique_ptr<Json::Value,std::default_delete<Json::Value> > > > >::_Unchecked_end
PUBLIC	?_Getal@?$list@U?$pair@$$CBV?$basic_string@DU?$char_traits@D@std@@V?$allocator@D@2@@std@@V?$unique_ptr@VValue@Json@@U?$default_delete@VValue@Json@@@std@@@2@@std@@V?$allocator@U?$pair@$$CBV?$basic_string@DU?$char_traits@D@std@@V?$allocator@D@2@@std@@V?$unique_ptr@VValue@Json@@U?$default_delete@VValue@Json@@@std@@@2@@std@@@2@@std@@AEAAAEAV?$allocator@U?$_List_node@U?$pair@$$CBV?$basic_string@DU?$char_traits@D@std@@V?$allocator@D@2@@std@@V?$unique_ptr@VValue@Json@@U?$default_delete@VValue@Json@@@std@@@2@@std@@PEAX@std@@@2@XZ ; std::list<std::pair<std::basic_string<char,std::char_traits<char>,std::allocator<char> > const ,std::unique_ptr<Json::Value,std::default_delete<Json::Value> > >,std::allocator<std::pair<std::basic_string<char,std::char_traits<char>,std::allocator<char> > const ,std::unique_ptr<Json::Value,std::default_delete<Json::Value> > > > >::_Getal
PUBLIC	?deallocate@?$allocator@V?$_List_unchecked_iterator@V?$_List_val@U?$_List_simple_types@U?$pair@$$CBV?$basic_string@DU?$char_traits@D@std@@V?$allocator@D@2@@std@@V?$unique_ptr@VValue@Json@@U?$default_delete@VValue@Json@@@std@@@2@@std@@@std@@@std@@@std@@@std@@QEAAXQEAV?$_List_unchecked_iterator@V?$_List_val@U?$_List_simple_types@U?$pair@$$CBV?$basic_string@DU?$char_traits@D@std@@V?$allocator@D@2@@std@@V?$unique_ptr@VValue@Json@@U?$default_delete@VValue@Json@@@std@@@2@@std@@@std@@@std@@@2@_K@Z ; std::allocator<std::_List_unchecked_iterator<std::_List_val<std::_List_simple_types<std::pair<std::basic_string<char,std::char_traits<char>,std::allocator<char> > const ,std::unique_ptr<Json::Value,std::default_delete<Json::Value> > > > > > >::deallocate
PUBLIC	?capacity@?$_Hash_vec@V?$allocator@V?$_List_unchecked_iterator@V?$_List_val@U?$_List_simple_types@U?$pair@$$CBV?$basic_string@DU?$char_traits@D@std@@V?$allocator@D@2@@std@@V?$unique_ptr@VValue@Json@@U?$default_delete@VValue@Json@@@std@@@2@@std@@@std@@@std@@@std@@@std@@@std@@QEBA_KXZ ; std::_Hash_vec<std::allocator<std::_List_unchecked_iterator<std::_List_val<std::_List_simple_types<std::pair<std::basic_string<char,std::char_traits<char>,std::allocator<char> > const ,std::unique_ptr<Json::Value,std::default_delete<Json::Value> > > > > > > >::capacity
PUBLIC	?_Assign_grow@?$_Hash_vec@V?$allocator@V?$_List_unchecked_iterator@V?$_List_val@U?$_List_simple_types@U?$pair@$$CBV?$basic_string@DU?$char_traits@D@std@@V?$allocator@D@2@@std@@V?$unique_ptr@VValue@Json@@U?$default_delete@VValue@Json@@@std@@@2@@std@@@std@@@std@@@std@@@std@@@std@@QEAAX_KV?$_List_unchecked_iterator@V?$_List_val@U?$_List_simple_types@U?$pair@$$CBV?$basic_string@DU?$char_traits@D@std@@V?$allocator@D@2@@std@@V?$unique_ptr@VValue@Json@@U?$default_delete@VValue@Json@@@std@@@2@@std@@@std@@@std@@@2@@Z ; std::_Hash_vec<std::allocator<std::_List_unchecked_iterator<std::_List_val<std::_List_simple_types<std::pair<std::basic_string<char,std::char_traits<char>,std::allocator<char> > const ,std::unique_ptr<Json::Value,std::default_delete<Json::Value> > > > > > > >::_Assign_grow
PUBLIC	?_Get_first@?$_Compressed_pair@V?$allocator@V?$_List_unchecked_iterator@V?$_List_val@U?$_List_simple_types@U?$pair@$$CBV?$basic_string@DU?$char_traits@D@std@@V?$allocator@D@2@@std@@V?$unique_ptr@VValue@Json@@U?$default_delete@VValue@Json@@@std@@@2@@std@@@std@@@std@@@std@@@std@@V?$_Vector_val@U?$_Simple_types@V?$_List_unchecked_iterator@V?$_List_val@U?$_List_simple_types@U?$pair@$$CBV?$basic_string@DU?$char_traits@D@std@@V?$allocator@D@2@@std@@V?$unique_ptr@VValue@Json@@U?$default_delete@VValue@Json@@@std@@@2@@std@@@std@@@std@@@std@@@std@@@2@$00@std@@QEAAAEAV?$allocator@V?$_List_unchecked_iterator@V?$_List_val@U?$_List_simple_types@U?$pair@$$CBV?$basic_string@DU?$char_traits@D@std@@V?$allocator@D@2@@std@@V?$unique_ptr@VValue@Json@@U?$default_delete@VValue@Json@@@std@@@2@@std@@@std@@@std@@@std@@@2@XZ ; std::_Compressed_pair<std::allocator<std::_List_unchecked_iterator<std::_List_val<std::_List_simple_types<std::pair<std::basic_string<char,std::char_traits<char>,std::allocator<char> > const ,std::unique_ptr<Json::Value,std::default_delete<Json::Value> > > > > > >,std::_Vector_val<std::_Simple_types<std::_List_unchecked_iterator<std::_List_val<std::_List_simple_types<std::pair<std::basic_string<char,std::char_traits<char>,std::allocator<char> > const ,std::unique_ptr<Json::Value,std::default_delete<Json::Value> > > > > > > >,1>::_Get_first
PUBLIC	??A?$array@E$0M@@std@@QEBAAEBE_K@Z		; std::array<unsigned char,12>::operator[]
PUBLIC	??A?$MappedFile@$0A@@@QEBAAEBD_K@Z		; MappedFile<0>::operator[]
PUBLIC	?_Get_first@?$_Compressed_pair@U?$default_delete@VValue@Json@@@std@@PEAVValue@Json@@$00@std@@QEAAAEAU?$default_delete@VValue@Json@@@2@XZ ; std::_Compressed_pair<std::default_delete<Json::Value>,Json::Value *,1>::_Get_first
PUBLIC	??1?$unique_ptr@VString@Json@@U?$default_delete@VString@Json@@@std@@@std@@QEAA@XZ ; std::unique_ptr<Json::String,std::default_delete<Json::String> >::~unique_ptr<Json::String,std::default_delete<Json::String> >
PUBLIC	??$_Construct_in_place@PEADAEAPEAD@std@@YAXAEAPEAD0@Z ; std::_Construct_in_place<char *,char * &>
PUBLIC	??$addressof@V?$_String_val@U?$_Simple_types@D@std@@@std@@@std@@YAPEAV?$_String_val@U?$_Simple_types@D@std@@@0@AEAV10@@Z ; std::addressof<std::_String_val<std::_Simple_types<char> > >
PUBLIC	??$_Reallocate_grow_by@V<lambda_1>@?1??append@?$basic_string@DU?$char_traits@D@std@@V?$allocator@D@2@@std@@QEAAAEAV34@QEBD_K@Z@PEBD_K@?$basic_string@DU?$char_traits@D@std@@V?$allocator@D@2@@std@@AEAAAEAV01@_KV<lambda_1>@?1??append@01@QEAAAEAV01@QEBD0@Z@PEBD_K@Z ; std::basic_string<char,std::char_traits<char>,std::allocator<char> >::_Reallocate_grow_by<`std::basic_string<char,std::char_traits<char>,std::allocator<char> >::append'::`2'::<lambda_1>,char const *,unsigned __int64>
PUBLIC	??$_Reallocate_grow_by@V<lambda_1>@?1??push_back@?$basic_string@DU?$char_traits@D@std@@V?$allocator@D@2@@std@@QEAAXD@Z@D@?$basic_string@DU?$char_traits@D@std@@V?$allocator@D@2@@std@@AEAAAEAV01@_KV<lambda_1>@?1??push_back@01@QEAAXD@Z@D@Z ; std::basic_string<char,std::char_traits<char>,std::allocator<char> >::_Reallocate_grow_by<`std::basic_string<char,std::char_traits<char>,std::allocator<char> >::push_back'::`2'::<lambda_1>,char>
PUBLIC	??$addressof@V?$basic_ostream@DU?$char_traits@D@std@@@std@@@std@@YAPEAV?$basic_ostream@DU?$char_traits@D@std@@@0@AEAV10@@Z ; std::addressof<std::basic_ostream<char,std::char_traits<char> > >
PUBLIC	??$?0V?$allocator@V?$unique_ptr@VValue@Json@@U?$default_delete@VValue@Json@@@std@@@std@@@std@@PEAV?$unique_ptr@VValue@Json@@U?$default_delete@VValue@Json@@@std@@@1@PEAV21@PEAV21@@?$_Compressed_pair@V?$allocator@V?$unique_ptr@VValue@Json@@U?$default_delete@VValue@Json@@@std@@@std@@@std@@V?$_Vector_val@U?$_Simple_types@V?$unique_ptr@VValue@Json@@U?$default_delete@VValue@Json@@@std@@@std@@@std@@@2@$00@std@@QEAA@U_One_then_variadic_args_t@1@$$QEAV?$allocator@V?$unique_ptr@VValue@Json@@U?$default_delete@VValue@Json@@@std@@@std@@@1@$$QEAPEAV?$unique_ptr@VValue@Json@@U?$default_delete@VValue@Json@@@std@@@1@22@Z ; std::_Compressed_pair<std::allocator<std::unique_ptr<Json::Value,std::default_delete<Json::Value> > >,std::_Vector_val<std::_Simple_types<std::unique_ptr<Json::Value,std::default_delete<Json::Value> > > >,1>::_Compressed_pair<std::allocator<std::unique_ptr<Json::Value,std::default_delete<Json::Value> > >,std::_Vector_val<std::_Simple_types<std::unique_ptr<Json::Value,std::default_delete<Json::Value> > > >,1><std::allocator<std::unique_ptr<Json::Value,std::default_delete<Json::Value> > >,std::unique_ptr<Json::Value,std::default_delete<Json::Value> > *,std::unique_ptr<Json::Value,std::default_delete<Json::Value> > *,std::unique_ptr<Json::Value,std::default_delete<Json::Value> > *>
PUBLIC	??$exchange@PEAV?$unique_ptr@VValue@Json@@U?$default_delete@VValue@Json@@@std@@@std@@$$T@std@@YAPEAV?$unique_ptr@VValue@Json@@U?$default_delete@VValue@Json@@@std@@@0@AEAPEAV10@$$QEA$$T@Z ; std::exchange<std::unique_ptr<Json::Value,std::default_delete<Json::Value> > *,std::nullptr_t>
PUBLIC	??$move@AEAV?$allocator@V?$unique_ptr@VValue@Json@@U?$default_delete@VValue@Json@@@std@@@std@@@std@@@std@@YA$$QEAV?$allocator@V?$unique_ptr@VValue@Json@@U?$default_delete@VValue@Json@@@std@@@std@@@0@AEAV10@@Z ; std::move<std::allocator<std::unique_ptr<Json::Value,std::default_delete<Json::Value> > > &>
PUBLIC	??$_Destroy_range@V?$allocator@V?$unique_ptr@VValue@Json@@U?$default_delete@VValue@Json@@@std@@@std@@@std@@@std@@YAXPEAV?$unique_ptr@VValue@Json@@U?$default_delete@VValue@Json@@@std@@@0@QEAV10@AEAV?$allocator@V?$unique_ptr@VValue@Json@@U?$default_delete@VValue@Json@@@std@@@std@@@0@@Z ; std::_Destroy_range<std::allocator<std::unique_ptr<Json::Value,std::default_delete<Json::Value> > > >
PUBLIC	??$?0U_Zero_then_variadic_args_t@std@@M@?$_Compressed_pair@U?$hash@V?$basic_string@DU?$char_traits@D@std@@V?$allocator@D@2@@std@@@std@@V?$_Compressed_pair@U?$equal_to@V?$basic_string@DU?$char_traits@D@std@@V?$allocator@D@2@@std@@@std@@M$00@2@$00@std@@QEAA@U_Zero_then_variadic_args_t@1@$$QEAU21@$$QEAM@Z ; std::_Compressed_pair<std::hash<std::basic_string<char,std::char_traits<char>,std::allocator<char> > >,std::_Compressed_pair<std::equal_to<std::basic_string<char,std::char_traits<char>,std::allocator<char> > >,float,1>,1>::_Compressed_pair<std::hash<std::basic_string<char,std::char_traits<char>,std::allocator<char> > >,std::_Compressed_pair<std::equal_to<std::basic_string<char,std::char_traits<char>,std::allocator<char> > >,float,1>,1><std::_Zero_then_variadic_args_t,float>
PUBLIC	??$?0AEBV?$allocator@U?$pair@$$CBV?$basic_string@DU?$char_traits@D@std@@V?$allocator@D@2@@std@@V?$unique_ptr@VValue@Json@@U?$default_delete@VValue@Json@@@std@@@2@@std@@@std@@$0A@@?$_Hash_vec@V?$allocator@V?$_List_unchecked_iterator@V?$_List_val@U?$_List_simple_types@U?$pair@$$CBV?$basic_string@DU?$char_traits@D@std@@V?$allocator@D@2@@std@@V?$unique_ptr@VValue@Json@@U?$default_delete@VValue@Json@@@std@@@2@@std@@@std@@@std@@@std@@@std@@@std@@QEAA@AEBV?$allocator@U?$pair@$$CBV?$basic_string@DU?$char_traits@D@std@@V?$allocator@D@2@@std@@V?$unique_ptr@VValue@Json@@U?$default_delete@VValue@Json@@@std@@@2@@std@@@1@@Z ; std::_Hash_vec<std::allocator<std::_List_unchecked_iterator<std::_List_val<std::_List_simple_types<std::pair<std::basic_string<char,std::char_traits<char>,std::allocator<char> > const ,std::unique_ptr<Json::Value,std::default_delete<Json::Value> > > > > > > >::_Hash_vec<std::allocator<std::_List_unchecked_iterator<std::_List_val<std::_List_simple_types<std::pair<std::basic_string<char,std::char_traits<char>,std::allocator<char> > const ,std::unique_ptr<Json::Value,std::default_delete<Json::Value> > > > > > > ><std::allocator<std::pair<std::basic_string<char,std::char_traits<char>,std::allocator<char> > const ,std::unique_ptr<Json::Value,std::default_delete<Json::Value> > > > const &,0>
PUBLIC	??$_Freenode0@V?$allocator@U?$_List_node@U?$pair@$$CBV?$basic_string@DU?$char_traits@D@std@@V?$allocator@D@2@@std@@V?$unique_ptr@VValue@Json@@U?$default_delete@VValue@Json@@@std@@@2@@std@@PEAX@std@@@std@@@?$_List_node@U?$pair@$$CBV?$basic_string@DU?$char_traits@D@std@@V?$allocator@D@2@@std@@V?$unique_ptr@VValue@Json@@U?$default_delete@VValue@Json@@@std@@@2@@std@@PEAX@std@@SAXAEAV?$allocator@U?$_List_node@U?$pair@$$CBV?$basic_string@DU?$char_traits@D@std@@V?$allocator@D@2@@std@@V?$unique_ptr@VValue@Json@@U?$default_delete@VValue@Json@@@std@@@2@@std@@PEAX@std@@@1@PEAU01@@Z ; std::_List_node<std::pair<std::basic_string<char,std::char_traits<char>,std::allocator<char> > const ,std::unique_ptr<Json::Value,std::default_delete<Json::Value> > >,void *>::_Freenode0<std::allocator<std::_List_node<std::pair<std::basic_string<char,std::char_traits<char>,std::allocator<char> > const ,std::unique_ptr<Json::Value,std::default_delete<Json::Value> > >,void *> > >
PUBLIC	??$_Free_non_head@V?$allocator@U?$_List_node@U?$pair@$$CBV?$basic_string@DU?$char_traits@D@std@@V?$allocator@D@2@@std@@V?$unique_ptr@VValue@Json@@U?$default_delete@VValue@Json@@@std@@@2@@std@@PEAX@std@@@std@@@?$_List_node@U?$pair@$$CBV?$basic_string@DU?$char_traits@D@std@@V?$allocator@D@2@@std@@V?$unique_ptr@VValue@Json@@U?$default_delete@VValue@Json@@@std@@@2@@std@@PEAX@std@@SAXAEAV?$allocator@U?$_List_node@U?$pair@$$CBV?$basic_string@DU?$char_traits@D@std@@V?$allocator@D@2@@std@@V?$unique_ptr@VValue@Json@@U?$default_delete@VValue@Json@@@std@@@2@@std@@PEAX@std@@@1@PEAU01@@Z ; std::_List_node<std::pair<std::basic_string<char,std::char_traits<char>,std::allocator<char> > const ,std::unique_ptr<Json::Value,std::default_delete<Json::Value> > >,void *>::_Free_non_head<std::allocator<std::_List_node<std::pair<std::basic_string<char,std::char_traits<char>,std::allocator<char> > const ,std::unique_ptr<Json::Value,std::default_delete<Json::Value> > >,void *> > >
PUBLIC	??$_Destroy_range@PEAV?$_List_unchecked_iterator@V?$_List_val@U?$_List_simple_types@U?$pair@$$CBV?$basic_string@DU?$char_traits@D@std@@V?$allocator@D@2@@std@@V?$unique_ptr@VValue@Json@@U?$default_delete@VValue@Json@@@std@@@2@@std@@@std@@@std@@@std@@PEAV12@@std@@YAXPEAV?$_List_unchecked_iterator@V?$_List_val@U?$_List_simple_types@U?$pair@$$CBV?$basic_string@DU?$char_traits@D@std@@V?$allocator@D@2@@std@@V?$unique_ptr@VValue@Json@@U?$default_delete@VValue@Json@@@std@@@2@@std@@@std@@@std@@@0@QEAV10@@Z ; std::_Destroy_range<std::_List_unchecked_iterator<std::_List_val<std::_List_simple_types<std::pair<std::basic_string<char,std::char_traits<char>,std::allocator<char> > const ,std::unique_ptr<Json::Value,std::default_delete<Json::Value> > > > > > *,std::_List_unchecked_iterator<std::_List_val<std::_List_simple_types<std::pair<std::basic_string<char,std::char_traits<char>,std::allocator<char> > const ,std::unique_ptr<Json::Value,std::default_delete<Json::Value> > > > > > *>
PUBLIC	??$forward@V?$allocator@D@std@@@std@@YA$$QEAV?$allocator@D@0@AEAV10@@Z ; std::forward<std::allocator<char> >
PUBLIC	??$parseNumber@$$CBV?$basic_string@DU?$char_traits@D@std@@V?$allocator@D@2@@std@@@Parser@Json@@CA?AV?$unique_ptr@VValue@Json@@U?$default_delete@VValue@Json@@@std@@@std@@AEBV?$basic_string@DU?$char_traits@D@std@@V?$allocator@D@2@@3@AEA_K@Z ; Json::Parser::parseNumber<std::basic_string<char,std::char_traits<char>,std::allocator<char> > const >
PUBLIC	??$parseNull@$$CBV?$basic_string@DU?$char_traits@D@std@@V?$allocator@D@2@@std@@@Parser@Json@@CA?AV?$unique_ptr@VValue@Json@@U?$default_delete@VValue@Json@@@std@@@std@@AEBV?$basic_string@DU?$char_traits@D@std@@V?$allocator@D@2@@3@AEA_K@Z ; Json::Parser::parseNull<std::basic_string<char,std::char_traits<char>,std::allocator<char> > const >
PUBLIC	??$parseBoolFalse@$$CBV?$basic_string@DU?$char_traits@D@std@@V?$allocator@D@2@@std@@@Parser@Json@@CA?AV?$unique_ptr@VValue@Json@@U?$default_delete@VValue@Json@@@std@@@std@@AEBV?$basic_string@DU?$char_traits@D@std@@V?$allocator@D@2@@3@AEA_K@Z ; Json::Parser::parseBoolFalse<std::basic_string<char,std::char_traits<char>,std::allocator<char> > const >
PUBLIC	??$parseBoolTrue@$$CBV?$basic_string@DU?$char_traits@D@std@@V?$allocator@D@2@@std@@@Parser@Json@@CA?AV?$unique_ptr@VValue@Json@@U?$default_delete@VValue@Json@@@std@@@std@@AEBV?$basic_string@DU?$char_traits@D@std@@V?$allocator@D@2@@3@AEA_K@Z ; Json::Parser::parseBoolTrue<std::basic_string<char,std::char_traits<char>,std::allocator<char> > const >
PUBLIC	??$parseString@$$CBV?$basic_string@DU?$char_traits@D@std@@V?$allocator@D@2@@std@@@Parser@Json@@CA?AV?$basic_string@DU?$char_traits@D@std@@V?$allocator@D@2@@std@@AEBV23@AEA_K@Z ; Json::Parser::parseString<std::basic_string<char,std::char_traits<char>,std::allocator<char> > const >
PUBLIC	??$parseArray@$$CBV?$basic_string@DU?$char_traits@D@std@@V?$allocator@D@2@@std@@@Parser@Json@@CA?AV?$unique_ptr@VValue@Json@@U?$default_delete@VValue@Json@@@std@@@std@@AEBV?$basic_string@DU?$char_traits@D@std@@V?$allocator@D@2@@3@AEA_K@Z ; Json::Parser::parseArray<std::basic_string<char,std::char_traits<char>,std::allocator<char> > const >
PUBLIC	??$parseObject@$$CBV?$basic_string@DU?$char_traits@D@std@@V?$allocator@D@2@@std@@@Parser@Json@@CA?AV?$unique_ptr@VValue@Json@@U?$default_delete@VValue@Json@@@std@@@std@@AEBV?$basic_string@DU?$char_traits@D@std@@V?$allocator@D@2@@3@AEA_K@Z ; Json::Parser::parseObject<std::basic_string<char,std::char_traits<char>,std::allocator<char> > const >
PUBLIC	??$skipWhitespaceSIMD16@V?$basic_string@DU?$char_traits@D@std@@V?$allocator@D@2@@std@@@Parser@Json@@CA_KAEBV?$basic_string@DU?$char_traits@D@std@@V?$allocator@D@2@@std@@_K@Z ; Json::Parser::skipWhitespaceSIMD16<std::basic_string<char,std::char_traits<char>,std::allocator<char> > >
PUBLIC	??$_Emplace_one_at_back@V?$unique_ptr@VValue@Json@@U?$default_delete@VValue@Json@@@std@@@std@@@?$vector@V?$unique_ptr@VValue@Json@@U?$default_delete@VValue@Json@@@std@@@std@@V?$allocator@V?$unique_ptr@VValue@Json@@U?$default_delete@VValue@Json@@@std@@@std@@@2@@std@@AEAAAEAV?$unique_ptr@VValue@Json@@U?$default_delete@VValue@Json@@@std@@@1@$$QEAV21@@Z ; std::vector<std::unique_ptr<Json::Value,std::default_delete<Json::Value> >,std::allocator<std::unique_ptr<Json::Value,std::default_delete<Json::Value> > > >::_Emplace_one_at_back<std::unique_ptr<Json::Value,std::default_delete<Json::Value> > >
PUBLIC	??$forward@V?$unique_ptr@VValue@Json@@U?$default_delete@VValue@Json@@@std@@@std@@@std@@YA$$QEAV?$unique_ptr@VValue@Json@@U?$default_delete@VValue@Json@@@std@@@0@AEAV10@@Z ; std::forward<std::unique_ptr<Json::Value,std::default_delete<Json::Value> > >
PUBLIC	??$?0VString@Json@@U?$default_delete@VString@Json@@@std@@$0A@@?$unique_ptr@VValue@Json@@U?$default_delete@VValue@Json@@@std@@@std@@QEAA@$$QEAV?$unique_ptr@VString@Json@@U?$default_delete@VString@Json@@@std@@@1@@Z ; std::unique_ptr<Json::Value,std::default_delete<Json::Value> >::unique_ptr<Json::Value,std::default_delete<Json::Value> ><Json::String,std::default_delete<Json::String>,0>
PUBLIC	??$?HDU?$char_traits@D@std@@V?$allocator@D@1@@std@@YA?AV?$basic_string@DU?$char_traits@D@std@@V?$allocator@D@2@@0@$$QEAV10@D@Z ; std::operator+<char,std::char_traits<char>,std::allocator<char> >
PUBLIC	??$parseNumber@V?$MappedFile@$0A@@@@Parser@Json@@CA?AV?$unique_ptr@VValue@Json@@U?$default_delete@VValue@Json@@@std@@@std@@AEAV?$MappedFile@$0A@@@AEA_K@Z ; Json::Parser::parseNumber<MappedFile<0> >
PUBLIC	??$parseNull@V?$MappedFile@$0A@@@@Parser@Json@@CA?AV?$unique_ptr@VValue@Json@@U?$default_delete@VValue@Json@@@std@@@std@@AEAV?$MappedFile@$0A@@@AEA_K@Z ; Json::Parser::parseNull<MappedFile<0> >
PUBLIC	??$parseBoolFalse@V?$MappedFile@$0A@@@@Parser@Json@@CA?AV?$unique_ptr@VValue@Json@@U?$default_delete@VValue@Json@@@std@@@std@@AEAV?$MappedFile@$0A@@@AEA_K@Z ; Json::Parser::parseBoolFalse<MappedFile<0> >
PUBLIC	??$parseBoolTrue@V?$MappedFile@$0A@@@@Parser@Json@@CA?AV?$unique_ptr@VValue@Json@@U?$default_delete@VValue@Json@@@std@@@std@@AEAV?$MappedFile@$0A@@@AEA_K@Z ; Json::Parser::parseBoolTrue<MappedFile<0> >
PUBLIC	??$make_unique@VString@Json@@V?$basic_string@DU?$char_traits@D@std@@V?$allocator@D@2@@std@@$0A@@std@@YA?AV?$unique_ptr@VString@Json@@U?$default_delete@VString@Json@@@std@@@0@$$QEAV?$basic_string@DU?$char_traits@D@std@@V?$allocator@D@2@@0@@Z ; std::make_unique<Json::String,std::basic_string<char,std::char_traits<char>,std::allocator<char> >,0>
PUBLIC	??$parseString@V?$MappedFile@$0A@@@@Parser@Json@@CA?AV?$basic_string@DU?$char_traits@D@std@@V?$allocator@D@2@@std@@AEAV?$MappedFile@$0A@@@AEA_K@Z ; Json::Parser::parseString<MappedFile<0> >
PUBLIC	??$parseArray@V?$MappedFile@$0A@@@@Parser@Json@@CA?AV?$unique_ptr@VValue@Json@@U?$default_delete@VValue@Json@@@std@@@std@@AEAV?$MappedFile@$0A@@@AEA_K@Z ; Json::Parser::parseArray<MappedFile<0> >
PUBLIC	??$parseObject@V?$MappedFile@$0A@@@@Parser@Json@@CA?AV?$unique_ptr@VValue@Json@@U?$default_delete@VValue@Json@@@std@@@std@@AEAV?$MappedFile@$0A@@@AEA_K@Z ; Json::Parser::parseObject<MappedFile<0> >
PUBLIC	??$skipWhitespaceSIMD16@V?$MappedFile@$0A@@@@Parser@Json@@CA_KAEBV?$MappedFile@$0A@@@_K@Z ; Json::Parser::skipWhitespaceSIMD16<MappedFile<0> >
PUBLIC	??$_Construct@$00PEAD@?$basic_string@DU?$char_traits@D@std@@V?$allocator@D@2@@std@@AEAAXQEAD_K@Z ; std::basic_string<char,std::char_traits<char>,std::allocator<char> >::_Construct<1,char *>
PUBLIC	??$?0AEBV?$allocator@D@std@@$$V@?$_Compressed_pair@V?$allocator@D@std@@V?$_String_val@U?$_Simple_types@D@std@@@2@$00@std@@QEAA@U_One_then_variadic_args_t@1@AEBV?$allocator@D@1@@Z ; std::_Compressed_pair<std::allocator<char>,std::_String_val<std::_Simple_types<char> >,1>::_Compressed_pair<std::allocator<char>,std::_String_val<std::_Simple_types<char> >,1><std::allocator<char> const &>
PUBLIC	??$move@AEAV?$basic_string@DU?$char_traits@D@std@@V?$allocator@D@2@@std@@@std@@YA$$QEAV?$basic_string@DU?$char_traits@D@std@@V?$allocator@D@2@@0@AEAV10@@Z ; std::move<std::basic_string<char,std::char_traits<char>,std::allocator<char> > &>
PUBLIC	?eq_int_type@?$_Narrow_char_traits@DH@std@@SA_NHH@Z ; std::_Narrow_char_traits<char,int>::eq_int_type
PUBLIC	?eof@?$_Narrow_char_traits@DH@std@@SAHXZ	; std::_Narrow_char_traits<char,int>::eof
PUBLIC	?_Construct_empty@?$basic_string@DU?$char_traits@D@std@@V?$allocator@D@2@@std@@AEAAXXZ ; std::basic_string<char,std::char_traits<char>,std::allocator<char> >::_Construct_empty
PUBLIC	??0?$basic_string@DU?$char_traits@D@std@@V?$allocator@D@2@@std@@QEAA@U_String_constructor_concat_tag@1@AEBV01@QEBD_K23@Z ; std::basic_string<char,std::char_traits<char>,std::allocator<char> >::basic_string<char,std::char_traits<char>,std::allocator<char> >
PUBLIC	?_Take_contents@?$basic_string@DU?$char_traits@D@std@@V?$allocator@D@2@@std@@AEAAXAEAV12@@Z ; std::basic_string<char,std::char_traits<char>,std::allocator<char> >::_Take_contents
PUBLIC	??R<lambda_1>@?1??append@?$basic_string@DU?$char_traits@D@std@@V?$allocator@D@2@@std@@QEAAAEAV23@QEBD_K@Z@QEBA@QEAD0101@Z ; `std::basic_string<char,std::char_traits<char>,std::allocator<char> >::append'::`2'::<lambda_1>::operator()
PUBLIC	?append@?$basic_string@DU?$char_traits@D@std@@V?$allocator@D@2@@std@@QEAAAEAV12@QEBD_K@Z ; std::basic_string<char,std::char_traits<char>,std::allocator<char> >::append
PUBLIC	??R<lambda_1>@?1??push_back@?$basic_string@DU?$char_traits@D@std@@V?$allocator@D@2@@std@@QEAAXD@Z@QEBA@QEADQEBD_KD@Z ; `std::basic_string<char,std::char_traits<char>,std::allocator<char> >::push_back'::`2'::<lambda_1>::operator()
PUBLIC	?push_back@?$basic_string@DU?$char_traits@D@std@@V?$allocator@D@2@@std@@QEAAXD@Z ; std::basic_string<char,std::char_traits<char>,std::allocator<char> >::push_back
PUBLIC	?data@?$basic_string@DU?$char_traits@D@std@@V?$allocator@D@2@@std@@QEBAPEBDXZ ; std::basic_string<char,std::char_traits<char>,std::allocator<char> >::data
PUBLIC	?_Tidy_deallocate@?$basic_string@DU?$char_traits@D@std@@V?$allocator@D@2@@std@@AEAAXXZ ; std::basic_string<char,std::char_traits<char>,std::allocator<char> >::_Tidy_deallocate
PUBLIC	?select_on_container_copy_construction@?$_Default_allocator_traits@V?$allocator@D@std@@@std@@SA?AV?$allocator@D@2@AEBV32@@Z ; std::_Default_allocator_traits<std::allocator<char> >::select_on_container_copy_construction
PUBLIC	?_Myptr@?$_String_val@U?$_Simple_types@D@std@@@std@@QEBAPEBDXZ ; std::_String_val<std::_Simple_types<char> >::_Myptr
PUBLIC	??0sentry@?$basic_ostream@DU?$char_traits@D@std@@@std@@QEAA@AEAV12@@Z ; std::basic_ostream<char,std::char_traits<char> >::sentry::sentry
PUBLIC	??1sentry@?$basic_ostream@DU?$char_traits@D@std@@@std@@QEAA@XZ ; std::basic_ostream<char,std::char_traits<char> >::sentry::~sentry
PUBLIC	??Bsentry@?$basic_ostream@DU?$char_traits@D@std@@@std@@QEBA_NXZ ; std::basic_ostream<char,std::char_traits<char> >::sentry::operator bool
PUBLIC	??1?$unique_ptr@VValue@Json@@U?$default_delete@VValue@Json@@@std@@@std@@QEAA@XZ ; std::unique_ptr<Json::Value,std::default_delete<Json::Value> >::~unique_ptr<Json::Value,std::default_delete<Json::Value> >
PUBLIC	??0?$vector@V?$unique_ptr@VValue@Json@@U?$default_delete@VValue@Json@@@std@@@std@@V?$allocator@V?$unique_ptr@VValue@Json@@U?$default_delete@VValue@Json@@@std@@@std@@@2@@std@@QEAA@$$QEAV01@@Z ; std::vector<std::unique_ptr<Json::Value,std::default_delete<Json::Value> >,std::allocator<std::unique_ptr<Json::Value,std::default_delete<Json::Value> > > >::vector<std::unique_ptr<Json::Value,std::default_delete<Json::Value> >,std::allocator<std::unique_ptr<Json::Value,std::default_delete<Json::Value> > > >
PUBLIC	?_Tidy@?$vector@V?$unique_ptr@VValue@Json@@U?$default_delete@VValue@Json@@@std@@@std@@V?$allocator@V?$unique_ptr@VValue@Json@@U?$default_delete@VValue@Json@@@std@@@std@@@2@@std@@AEAAXXZ ; std::vector<std::unique_ptr<Json::Value,std::default_delete<Json::Value> >,std::allocator<std::unique_ptr<Json::Value,std::default_delete<Json::Value> > > >::_Tidy
PUBLIC	??0?$allocator@U?$pair@$$CBV?$basic_string@DU?$char_traits@D@std@@V?$allocator@D@2@@std@@V?$unique_ptr@VValue@Json@@U?$default_delete@VValue@Json@@@std@@@2@@std@@@std@@QEAA@XZ ; std::allocator<std::pair<std::basic_string<char,std::char_traits<char>,std::allocator<char> > const ,std::unique_ptr<Json::Value,std::default_delete<Json::Value> > > >::allocator<std::pair<std::basic_string<char,std::char_traits<char>,std::allocator<char> > const ,std::unique_ptr<Json::Value,std::default_delete<Json::Value> > > >
PUBLIC	??0?$_Uhash_compare@V?$basic_string@DU?$char_traits@D@std@@V?$allocator@D@2@@std@@U?$hash@V?$basic_string@DU?$char_traits@D@std@@V?$allocator@D@2@@std@@@2@U?$equal_to@V?$basic_string@DU?$char_traits@D@std@@V?$allocator@D@2@@std@@@2@@std@@QEAA@XZ ; std::_Uhash_compare<std::basic_string<char,std::char_traits<char>,std::allocator<char> >,std::hash<std::basic_string<char,std::char_traits<char>,std::allocator<char> > >,std::equal_to<std::basic_string<char,std::char_traits<char>,std::allocator<char> > > >::_Uhash_compare<std::basic_string<char,std::char_traits<char>,std::allocator<char> >,std::hash<std::basic_string<char,std::char_traits<char>,std::allocator<char> > >,std::equal_to<std::basic_string<char,std::char_traits<char>,std::allocator<char> > > >
PUBLIC	??0?$_Hash@V?$_Umap_traits@V?$basic_string@DU?$char_traits@D@std@@V?$allocator@D@2@@std@@V?$unique_ptr@VValue@Json@@U?$default_delete@VValue@Json@@@std@@@2@V?$_Uhash_compare@V?$basic_string@DU?$char_traits@D@std@@V?$allocator@D@2@@std@@U?$hash@V?$basic_string@DU?$char_traits@D@std@@V?$allocator@D@2@@std@@@2@U?$equal_to@V?$basic_string@DU?$char_traits@D@std@@V?$allocator@D@2@@std@@@2@@2@V?$allocator@U?$pair@$$CBV?$basic_string@DU?$char_traits@D@std@@V?$allocator@D@2@@std@@V?$unique_ptr@VValue@Json@@U?$default_delete@VValue@Json@@@std@@@2@@std@@@2@$0A@@std@@@std@@IEAA@AEBV?$_Uhash_compare@V?$basic_string@DU?$char_traits@D@std@@V?$allocator@D@2@@std@@U?$hash@V?$basic_string@DU?$char_traits@D@std@@V?$allocator@D@2@@std@@@2@U?$equal_to@V?$basic_string@DU?$char_traits@D@std@@V?$allocator@D@2@@std@@@2@@1@AEBV?$allocator@U?$pair@$$CBV?$basic_string@DU?$char_traits@D@std@@V?$allocator@D@2@@std@@V?$unique_ptr@VValue@Json@@U?$default_delete@VValue@Json@@@std@@@2@@std@@@1@@Z ; std::_Hash<std::_Umap_traits<std::basic_string<char,std::char_traits<char>,std::allocator<char> >,std::unique_ptr<Json::Value,std::default_delete<Json::Value> >,std::_Uhash_compare<std::basic_string<char,std::char_traits<char>,std::allocator<char> >,std::hash<std::basic_string<char,std::char_traits<char>,std::allocator<char> > >,std::equal_to<std::basic_string<char,std::char_traits<char>,std::allocator<char> > > >,std::allocator<std::pair<std::basic_string<char,std::char_traits<char>,std::allocator<char> > const ,std::unique_ptr<Json::Value,std::default_delete<Json::Value> > > >,0> >::_Hash<std::_Umap_traits<std::basic_string<char,std::char_traits<char>,std::allocator<char> >,std::unique_ptr<Json::Value,std::default_delete<Json::Value> >,std::_Uhash_compare<std::basic_string<char,std::char_traits<char>,std::allocator<char> >,std::hash<std::basic_string<char,std::char_traits<char>,std::allocator<char> > >,std::equal_to<std::basic_string<char,std::char_traits<char>,std::allocator<char> > > >,std::allocator<std::pair<std::basic_string<char,std::char_traits<char>,std::allocator<char> > const ,std::unique_ptr<Json::Value,std::default_delete<Json::Value> > > >,0> >
PUBLIC	?_Tidy@?$list@U?$pair@$$CBV?$basic_string@DU?$char_traits@D@std@@V?$allocator@D@2@@std@@V?$unique_ptr@VValue@Json@@U?$default_delete@VValue@Json@@@std@@@2@@std@@V?$allocator@U?$pair@$$CBV?$basic_string@DU?$char_traits@D@std@@V?$allocator@D@2@@std@@V?$unique_ptr@VValue@Json@@U?$default_delete@VValue@Json@@@std@@@2@@std@@@2@@std@@AEAAXXZ ; std::list<std::pair<std::basic_string<char,std::char_traits<char>,std::allocator<char> > const ,std::unique_ptr<Json::Value,std::default_delete<Json::Value> > >,std::allocator<std::pair<std::basic_string<char,std::char_traits<char>,std::allocator<char> > const ,std::unique_ptr<Json::Value,std::default_delete<Json::Value> > > > >::_Tidy
PUBLIC	?_Tidy@?$_Hash_vec@V?$allocator@V?$_List_unchecked_iterator@V?$_List_val@U?$_List_simple_types@U?$pair@$$CBV?$basic_string@DU?$char_traits@D@std@@V?$allocator@D@2@@std@@V?$unique_ptr@VValue@Json@@U?$default_delete@VValue@Json@@@std@@@2@@std@@@std@@@std@@@std@@@std@@@std@@QEAAXXZ ; std::_Hash_vec<std::allocator<std::_List_unchecked_iterator<std::_List_val<std::_List_simple_types<std::pair<std::basic_string<char,std::char_traits<char>,std::allocator<char> > const ,std::unique_ptr<Json::Value,std::default_delete<Json::Value> > > > > > > >::_Tidy
PUBLIC	?size@?$MappedFile@$0A@@@QEBA_KXZ		; MappedFile<0>::size
PUBLIC	?map@?$MappedFile@$0A@@@QEAAXPEBD@Z		; MappedFile<0>::map
PUBLIC	?unmap@?$MappedFile@$0A@@@QEAAXXZ		; MappedFile<0>::unmap
PUBLIC	??$?0V?$allocator@D@std@@$$V@?$_Compressed_pair@V?$allocator@D@std@@V?$_String_val@U?$_Simple_types@D@std@@@2@$00@std@@QEAA@U_One_then_variadic_args_t@1@$$QEAV?$allocator@D@1@@Z ; std::_Compressed_pair<std::allocator<char>,std::_String_val<std::_Simple_types<char> >,1>::_Compressed_pair<std::allocator<char>,std::_String_val<std::_Simple_types<char> >,1><std::allocator<char> >
PUBLIC	??$move@AEAV?$allocator@D@std@@@std@@YA$$QEAV?$allocator@D@0@AEAV10@@Z ; std::move<std::allocator<char> &>
PUBLIC	??$?0$$V@?$_Compressed_pair@V?$allocator@V?$unique_ptr@VValue@Json@@U?$default_delete@VValue@Json@@@std@@@std@@@std@@V?$_Vector_val@U?$_Simple_types@V?$unique_ptr@VValue@Json@@U?$default_delete@VValue@Json@@@std@@@std@@@std@@@2@$00@std@@QEAA@U_Zero_then_variadic_args_t@1@@Z ; std::_Compressed_pair<std::allocator<std::unique_ptr<Json::Value,std::default_delete<Json::Value> > >,std::_Vector_val<std::_Simple_types<std::unique_ptr<Json::Value,std::default_delete<Json::Value> > > >,1>::_Compressed_pair<std::allocator<std::unique_ptr<Json::Value,std::default_delete<Json::Value> > >,std::_Vector_val<std::_Simple_types<std::unique_ptr<Json::Value,std::default_delete<Json::Value> > > >,1><>
PUBLIC	??$parseValue@$$CBV?$basic_string@DU?$char_traits@D@std@@V?$allocator@D@2@@std@@@Parser@Json@@CA?AV?$unique_ptr@VValue@Json@@U?$default_delete@VValue@Json@@@std@@@std@@AEBV?$basic_string@DU?$char_traits@D@std@@V?$allocator@D@2@@3@AEA_K@Z ; Json::Parser::parseValue<std::basic_string<char,std::char_traits<char>,std::allocator<char> > const >
PUBLIC	??$skipWhitespace@V?$basic_string@DU?$char_traits@D@std@@V?$allocator@D@2@@std@@@Parser@Json@@CA_KAEBV?$basic_string@DU?$char_traits@D@std@@V?$allocator@D@2@@std@@_K@Z ; Json::Parser::skipWhitespace<std::basic_string<char,std::char_traits<char>,std::allocator<char> > >
PUBLIC	??$_Insert_string@DU?$char_traits@D@std@@_K@std@@YAAEAV?$basic_ostream@DU?$char_traits@D@std@@@0@AEAV10@QEBD_K@Z ; std::_Insert_string<char,std::char_traits<char>,unsigned __int64>
PUBLIC	??$emplace_back@V?$unique_ptr@VValue@Json@@U?$default_delete@VValue@Json@@@std@@@std@@@?$vector@V?$unique_ptr@VValue@Json@@U?$default_delete@VValue@Json@@@std@@@std@@V?$allocator@V?$unique_ptr@VValue@Json@@U?$default_delete@VValue@Json@@@std@@@std@@@2@@std@@QEAAAEAV?$unique_ptr@VValue@Json@@U?$default_delete@VValue@Json@@@std@@@1@$$QEAV21@@Z ; std::vector<std::unique_ptr<Json::Value,std::default_delete<Json::Value> >,std::allocator<std::unique_ptr<Json::Value,std::default_delete<Json::Value> > > >::emplace_back<std::unique_ptr<Json::Value,std::default_delete<Json::Value> > >
PUBLIC	??$move@V?$unique_ptr@VValue@Json@@U?$default_delete@VValue@Json@@@std@@@std@@@std@@YA$$QEAV?$unique_ptr@VValue@Json@@U?$default_delete@VValue@Json@@@std@@@0@$$QEAV10@@Z ; std::move<std::unique_ptr<Json::Value,std::default_delete<Json::Value> > >
PUBLIC	??$parseValue@V?$MappedFile@$0A@@@@Parser@Json@@CA?AV?$unique_ptr@VValue@Json@@U?$default_delete@VValue@Json@@@std@@@std@@AEAV?$MappedFile@$0A@@@AEA_K@Z ; Json::Parser::parseValue<MappedFile<0> >
PUBLIC	??$skipWhitespace@V?$MappedFile@$0A@@@@Parser@Json@@CA_KAEBV?$MappedFile@$0A@@@_K@Z ; Json::Parser::skipWhitespace<MappedFile<0> >
PUBLIC	??$construct_at@PEADAEBQEAD@std@@YAPEAPEADQEAPEADAEBQEAD@Z ; std::construct_at<char *,char * const &>
PUBLIC	??$forward@AEBQEAD@std@@YAAEBQEADAEBQEAD@Z	; std::forward<char * const &>
PUBLIC	??$addressof@PEAD@std@@YAPEAPEADAEAPEAD@Z	; std::addressof<char *>
PUBLIC	??$construct_at@D$$V@std@@YAPEADQEAD@Z		; std::construct_at<char>
PUBLIC	??$_Allocate_at_least_helper@V?$allocator@D@std@@@std@@YAPEADAEAV?$allocator@D@0@AEA_K@Z ; std::_Allocate_at_least_helper<std::allocator<char> >
PUBLIC	??$?0PEAD$0A@@?$basic_string@DU?$char_traits@D@std@@V?$allocator@D@2@@std@@QEAA@PEAD0AEBV?$allocator@D@1@@Z ; std::basic_string<char,std::char_traits<char>,std::allocator<char> >::basic_string<char,std::char_traits<char>,std::allocator<char> ><char *,0>
PUBLIC	??$_Get_unwrapped@AEAPEAD@std@@YA?A_TAEAPEAD@Z	; std::_Get_unwrapped<char * &>
PUBLIC	??$_UIntegral_to_buff@DI@std@@YAPEADPEADI@Z	; std::_UIntegral_to_buff<char,unsigned int>
PUBLIC	??$?HDU?$char_traits@D@std@@V?$allocator@D@1@@std@@YA?AV?$basic_string@DU?$char_traits@D@std@@V?$allocator@D@2@@0@$$QEAV10@QEBD@Z ; std::operator+<char,std::char_traits<char>,std::allocator<char> >
PUBLIC	??0Document@Json@@QEAA@$$QEAV01@@Z		; Json::Document::Document
PUBLIC	??0?$basic_string@DU?$char_traits@D@std@@V?$allocator@D@2@@std@@QEAA@XZ ; std::basic_string<char,std::char_traits<char>,std::allocator<char> >::basic_string<char,std::char_traits<char>,std::allocator<char> >
PUBLIC	??0?$basic_string@DU?$char_traits@D@std@@V?$allocator@D@2@@std@@QEAA@QEBD_K@Z ; std::basic_string<char,std::char_traits<char>,std::allocator<char> >::basic_string<char,std::char_traits<char>,std::allocator<char> >
PUBLIC	??0?$basic_string@DU?$char_traits@D@std@@V?$allocator@D@2@@std@@QEAA@$$QEAV01@@Z ; std::basic_string<char,std::char_traits<char>,std::allocator<char> >::basic_string<char,std::char_traits<char>,std::allocator<char> >
PUBLIC	??1?$basic_string@DU?$char_traits@D@std@@V?$allocator@D@2@@std@@QEAA@XZ ; std::basic_string<char,std::char_traits<char>,std::allocator<char> >::~basic_string<char,std::char_traits<char>,std::allocator<char> >
PUBLIC	?append@?$basic_string@DU?$char_traits@D@std@@V?$allocator@D@2@@std@@QEAAAEAV12@AEBV12@@Z ; std::basic_string<char,std::char_traits<char>,std::allocator<char> >::append
PUBLIC	?append@?$basic_string@DU?$char_traits@D@std@@V?$allocator@D@2@@std@@QEAAAEAV12@QEBD@Z ; std::basic_string<char,std::char_traits<char>,std::allocator<char> >::append
PUBLIC	?c_str@?$basic_string@DU?$char_traits@D@std@@V?$allocator@D@2@@std@@QEBAPEBDXZ ; std::basic_string<char,std::char_traits<char>,std::allocator<char> >::c_str
PUBLIC	?size@?$basic_string@DU?$char_traits@D@std@@V?$allocator@D@2@@std@@QEBA_KXZ ; std::basic_string<char,std::char_traits<char>,std::allocator<char> >::size
PUBLIC	?_Calculate_growth@?$basic_string@DU?$char_traits@D@std@@V?$allocator@D@2@@std@@CA_K_K00@Z ; std::basic_string<char,std::char_traits<char>,std::allocator<char> >::_Calculate_growth
PUBLIC	??1_Bxty@?$_String_val@U?$_Simple_types@D@std@@@std@@QEAA@XZ ; std::_String_val<std::_Simple_types<char> >::_Bxty::~_Bxty
PUBLIC	?_Large_mode_engaged@?$_String_val@U?$_Simple_types@D@std@@@std@@QEBA_NXZ ; std::_String_val<std::_Simple_types<char> >::_Large_mode_engaged
PUBLIC	?_Myptr@?$_String_val@U?$_Simple_types@D@std@@@std@@QEAAPEADXZ ; std::_String_val<std::_Simple_types<char> >::_Myptr
PUBLIC	??0?$vector@V?$unique_ptr@VValue@Json@@U?$default_delete@VValue@Json@@@std@@@std@@V?$allocator@V?$unique_ptr@VValue@Json@@U?$default_delete@VValue@Json@@@std@@@std@@@2@@std@@QEAA@XZ ; std::vector<std::unique_ptr<Json::Value,std::default_delete<Json::Value> >,std::allocator<std::unique_ptr<Json::Value,std::default_delete<Json::Value> > > >::vector<std::unique_ptr<Json::Value,std::default_delete<Json::Value> >,std::allocator<std::unique_ptr<Json::Value,std::default_delete<Json::Value> > > >
PUBLIC	??1?$vector@V?$unique_ptr@VValue@Json@@U?$default_delete@VValue@Json@@@std@@@std@@V?$allocator@V?$unique_ptr@VValue@Json@@U?$default_delete@VValue@Json@@@std@@@std@@@2@@std@@QEAA@XZ ; std::vector<std::unique_ptr<Json::Value,std::default_delete<Json::Value> >,std::allocator<std::unique_ptr<Json::Value,std::default_delete<Json::Value> > > >::~vector<std::unique_ptr<Json::Value,std::default_delete<Json::Value> >,std::allocator<std::unique_ptr<Json::Value,std::default_delete<Json::Value> > > >
PUBLIC	?size@?$vector@V?$unique_ptr@VValue@Json@@U?$default_delete@VValue@Json@@@std@@@std@@V?$allocator@V?$unique_ptr@VValue@Json@@U?$default_delete@VValue@Json@@@std@@@std@@@2@@std@@QEBA_KXZ ; std::vector<std::unique_ptr<Json::Value,std::default_delete<Json::Value> >,std::allocator<std::unique_ptr<Json::Value,std::default_delete<Json::Value> > > >::size
PUBLIC	??0?$unordered_map@V?$basic_string@DU?$char_traits@D@std@@V?$allocator@D@2@@std@@V?$unique_ptr@VValue@Json@@U?$default_delete@VValue@Json@@@std@@@2@U?$hash@V?$basic_string@DU?$char_traits@D@std@@V?$allocator@D@2@@std@@@2@U?$equal_to@V?$basic_string@DU?$char_traits@D@std@@V?$allocator@D@2@@std@@@2@V?$allocator@U?$pair@$$CBV?$basic_string@DU?$char_traits@D@std@@V?$allocator@D@2@@std@@V?$unique_ptr@VValue@Json@@U?$default_delete@VValue@Json@@@std@@@2@@std@@@2@@std@@QEAA@XZ ; std::unordered_map<std::basic_string<char,std::char_traits<char>,std::allocator<char> >,std::unique_ptr<Json::Value,std::default_delete<Json::Value> >,std::hash<std::basic_string<char,std::char_traits<char>,std::allocator<char> > >,std::equal_to<std::basic_string<char,std::char_traits<char>,std::allocator<char> > >,std::allocator<std::pair<std::basic_string<char,std::char_traits<char>,std::allocator<char> > const ,std::unique_ptr<Json::Value,std::default_delete<Json::Value> > > > >::unordered_map<std::basic_string<char,std::char_traits<char>,std::allocator<char> >,std::unique_ptr<Json::Value,std::default_delete<Json::Value> >,std::hash<std::basic_string<char,std::char_traits<char>,std::allocator<char> > >,std::equal_to<std::basic_string<char,std::char_traits<char>,std::allocator<char> > >,std::allocator<std::pair<std::basic_string<char,std::char_traits<char>,std::allocator<char> > const ,std::unique_ptr<Json::Value,std::default_delete<Json::Value> > > > >
PUBLIC	??1?$list@U?$pair@$$CBV?$basic_string@DU?$char_traits@D@std@@V?$allocator@D@2@@std@@V?$unique_ptr@VValue@Json@@U?$default_delete@VValue@Json@@@std@@@2@@std@@V?$allocator@U?$pair@$$CBV?$basic_string@DU?$char_traits@D@std@@V?$allocator@D@2@@std@@V?$unique_ptr@VValue@Json@@U?$default_delete@VValue@Json@@@std@@@2@@std@@@2@@std@@QEAA@XZ ; std::list<std::pair<std::basic_string<char,std::char_traits<char>,std::allocator<char> > const ,std::unique_ptr<Json::Value,std::default_delete<Json::Value> > >,std::allocator<std::pair<std::basic_string<char,std::char_traits<char>,std::allocator<char> > const ,std::unique_ptr<Json::Value,std::default_delete<Json::Value> > > > >::~list<std::pair<std::basic_string<char,std::char_traits<char>,std::allocator<char> > const ,std::unique_ptr<Json::Value,std::default_delete<Json::Value> > >,std::allocator<std::pair<std::basic_string<char,std::char_traits<char>,std::allocator<char> > const ,std::unique_ptr<Json::Value,std::default_delete<Json::Value> > > > >
PUBLIC	??1?$_Hash_vec@V?$allocator@V?$_List_unchecked_iterator@V?$_List_val@U?$_List_simple_types@U?$pair@$$CBV?$basic_string@DU?$char_traits@D@std@@V?$allocator@D@2@@std@@V?$unique_ptr@VValue@Json@@U?$default_delete@VValue@Json@@@std@@@2@@std@@@std@@@std@@@std@@@std@@@std@@QEAA@XZ ; std::_Hash_vec<std::allocator<std::_List_unchecked_iterator<std::_List_val<std::_List_simple_types<std::pair<std::basic_string<char,std::char_traits<char>,std::allocator<char> > const ,std::unique_ptr<Json::Value,std::default_delete<Json::Value> > > > > > > >::~_Hash_vec<std::allocator<std::_List_unchecked_iterator<std::_List_val<std::_List_simple_types<std::pair<std::basic_string<char,std::char_traits<char>,std::allocator<char> > const ,std::unique_ptr<Json::Value,std::default_delete<Json::Value> > > > > > > >
PUBLIC	??0?$MappedFile@$0A@@@QEAA@PEBD@Z		; MappedFile<0>::MappedFile<0>
PUBLIC	??1?$MappedFile@$0A@@@QEAA@XZ			; MappedFile<0>::~MappedFile<0>
PUBLIC	?isMapped@?$MappedFile@$0A@@@QEBA_NXZ		; MappedFile<0>::isMapped
PUBLIC	??$parse@$$CBV?$basic_string@DU?$char_traits@D@std@@V?$allocator@D@2@@std@@@Parser@Json@@SA?AVDocument@1@AEBV?$basic_string@DU?$char_traits@D@std@@V?$allocator@D@2@@std@@@Z ; Json::Parser::parse<std::basic_string<char,std::char_traits<char>,std::allocator<char> > const >
